
output/exbl.elf:     file format elf64-littleriscv
output/exbl.elf
architecture: riscv:rv64, flags 0x00000112:
EXEC_P, HAS_SYMS, D_PAGED
start address 0x00000000a0000000

Program Header:
    LOAD off    0x0000000000001000 vaddr 0x00000000a0000000 paddr 0x00000000a0000000 align 2**12
         filesz 0x0000000000005200 memsz 0x00000000000092c0 flags rwx

Sections:
Idx Name          Size      VMA               LMA               File off  Algn
  0 .entry        00000320  00000000a0000000  00000000a0000000  00001000  2**0
                  CONTENTS, ALLOC, LOAD, READONLY, CODE
  1 .text         00004960  00000000a0000320  00000000a0000320  00001320  2**4
                  CONTENTS, ALLOC, LOAD, READONLY, CODE
  2 .rodata       00000520  00000000a0004c80  00000000a0004c80  00005c80  2**5
                  CONTENTS, ALLOC, LOAD, READONLY, DATA
  3 .data         00000060  00000000a00051a0  00000000a00051a0  000061a0  2**5
                  CONTENTS, ALLOC, LOAD, DATA
  4 .bss          000040c0  00000000a0005200  00000000a0005200  00006200  2**5
                  ALLOC
  5 .debug_info   00005b58  0000000000000000  0000000000000000  00006200  2**0
                  CONTENTS, READONLY, DEBUGGING
  6 .debug_abbrev 000011ad  0000000000000000  0000000000000000  0000bd58  2**0
                  CONTENTS, READONLY, DEBUGGING
  7 .debug_aranges 000002d0  0000000000000000  0000000000000000  0000cf10  2**4
                  CONTENTS, READONLY, DEBUGGING
  8 .debug_line   00004ae4  0000000000000000  0000000000000000  0000d1e0  2**0
                  CONTENTS, READONLY, DEBUGGING
  9 .debug_str    000013c7  0000000000000000  0000000000000000  00011cc4  2**0
                  CONTENTS, READONLY, DEBUGGING
 10 .debug_frame  000010b8  0000000000000000  0000000000000000  00013090  2**3
                  CONTENTS, READONLY, DEBUGGING
SYMBOL TABLE:
00000000a0000000 l    d  .entry	0000000000000000 .entry
00000000a0000320 l    d  .text	0000000000000000 .text
00000000a0004c80 l    d  .rodata	0000000000000000 .rodata
00000000a00051a0 l    d  .data	0000000000000000 .data
00000000a0005200 l    d  .bss	0000000000000000 .bss
0000000000000000 l    d  .debug_info	0000000000000000 .debug_info
0000000000000000 l    d  .debug_abbrev	0000000000000000 .debug_abbrev
0000000000000000 l    d  .debug_aranges	0000000000000000 .debug_aranges
0000000000000000 l    d  .debug_line	0000000000000000 .debug_line
0000000000000000 l    d  .debug_str	0000000000000000 .debug_str
0000000000000000 l    d  .debug_frame	0000000000000000 .debug_frame
0000000000000000 l    df *ABS*	0000000000000000 obj/mentry.o
00000000a00051a0 l       .data	0000000000000000 trap_table
00000000a00001f0 l       .entry	0000000000000000 __trap_from_machine_mode
00000000a00001f8 l       .entry	0000000000000000 do_reset
00000000a0000004 l       .entry	0000000000000000 trap_vector
00000000a0000134 l       .entry	0000000000000000 restore_mscratch
00000000a0000138 l       .entry	0000000000000000 restore_regs
00000000a00052a0 l       .bss	0000000000000000 stacks
0000000000000000 l    df *ABS*	0000000000000000 uart.c
0000000000000000 l    df *ABS*	0000000000000000 exbl.c
0000000000000000 l    df *ABS*	0000000000000000 boot.c
0000000000000000 l    df *ABS*	0000000000000000 sfls.c
0000000000000000 l    df *ABS*	0000000000000000 ddr.c
0000000000000000 l    df *ABS*	0000000000000000 dma.c
0000000000000000 l    df *ABS*	0000000000000000 wdt.c
0000000000000000 l    df *ABS*	0000000000000000 aes.c
0000000000000000 l    df *ABS*	0000000000000000 sha.c
0000000000000000 l    df *ABS*	0000000000000000 chksum.c
0000000000000000 l    df *ABS*	0000000000000000 print.c
00000000a0003580 l     F .text	000000000000007a skip_atoi
00000000a00035fa l     F .text	0000000000000368 number
0000000000000000 l    df *ABS*	0000000000000000 rv_utils.c
0000000000000000 l    df *ABS*	0000000000000000 uart_regcontrol.c
00000000a00008d0 g     F .text	000000000000000e Uart6_Irq
00000000a00047bc g     F .text	00000000000000e4 RxAddr
00000000a00006f8 g     F .text	0000000000000034 Uart4_Rx
00000000a00005f0 g     F .text	0000000000000036 Uart3_Tx
00000000a0000a94 g     F .text	000000000000000e Uart8_Irq
00000000a0004c80 g       .rodata	0000000000000000 __rodata_s
00000000a0005164 g       .rodata	0000000000000000 _data_lma_e
00000000a00051a0 g       .data	0000000000000000 _fdata
00000000a0000a2a g     F .text	0000000000000036 Uart8_Tx
00000000a000516c g       .rodata	0000000000000000 _text_e
00000000a0000596 g     F .text	000000000000005a Uart3_Init
00000000a0000dc0 g     F .text	000000000000004e main_3
00000000a00018aa g     F .text	000000000000028e ddr_cal_test
00000000a00007ca g     F .text	0000000000000034 Uart5_Rx
00000000a000072c g     F .text	000000000000000e Uart4_Irq
00000000a00009c2 g     F .text	000000000000000e Uart7_Irq
00000000a0004412 g     F .text	000000000000021a rv_util_test
00000000a000065a g     F .text	000000000000000e Uart3_Irq
00000000a0000e68 g     F .text	0000000000000048 _init_data_section
00000000a000332e g     F .text	0000000000000090 aes256_enc
00000000a00051a0 g       .rodata	0000000000000000 _etext
00000000a0001b38 g     F .text	00000000000002de ddr_rw_test
00000000a0000ad8 g     F .text	0000000000000010 sleep_s
00000000a00042b8 g     F .text	0000000000000040 dmwrite32
00000000a000106e g     F .text	0000000000000104 DdrMapTest
00000000a00041be g     F .text	0000000000000076 hwflush_dcache_range
00000000a0003102 g     F .text	000000000000004a wdt_init
00000000a0003522 g     F .text	000000000000005e chksum16
00000000a00004b6 g     F .text	000000000000000e Uart1_Irq
00000000a000098e g     F .text	0000000000000034 Uart7_Rx
00000000a000044c g     F .text	0000000000000036 Uart1_Tx
00000000a0002f62 g     F .text	00000000000000d8 cdma_copy
00000000a0001692 g     F .text	000000000000009c DmOutDly
00000000a0005184 g     O .rodata	0000000000000004 _bss_e
00000000a0005200 g       .bss	0000000000000000 _bss_start
00000000a0005220 g     O .bss	0000000000000080 gnRxPar
00000000a0000320 g       .text	0000000000000000 __text_s
00000000a00092ac g     O .bss	0000000000000004 gnI2cOn
00000000a000314c g     F .text	000000000000001c wdt_continue
00000000a00006c2 g     F .text	0000000000000036 Uart4_Tx
00000000a0000626 g     F .text	0000000000000034 Uart3_Rx
00000000a0005160 g     O .rodata	0000000000000004 _data_lma_s
00000000a0001ebc g     F .text	0000000000000042 DdrOn
00000000a0005178 g     O .rodata	0000000000000004 _data_s
00000000a00039b6 g     F .text	0000000000000764 vsnprintf_
00000000a00013e2 g     F .text	0000000000000138 DqG2OutDly
00000000a0001f40 g     F .text	000000000000001a DdrOffOn
00000000a0000eb0 g     F .text	00000000000001be sfls_init
00000000a0005200 g       .data	0000000000000000 __data_e
00000000a0000000 g       .entry	0000000000000000 reset_vector
00000000a0004234 g     F .text	0000000000000042 dmwrite8
00000000a00043a8 g     F .text	0000000000000036 dmread32
00000000a00092a4 g     O .bss	0000000000000004 gnRxData
00000000a0005200 g       *ABS*	0000000000000000 __data_lma_e
00000000a0000554 g     F .text	0000000000000034 Uart2_Rx
00000000a0000668 g     F .text	000000000000005a Uart4_Init
00000000a00092c0 g       .bss	0000000000000000 __bss_e
00000000a00003b0 g     F .text	0000000000000034 Uart0_Rx
00000000a00042f8 g     F .text	000000000000003c dmwrite64
00000000a0004796 g     F .text	0000000000000026 TxErr
00000000a00043de g     F .text	0000000000000034 dmread64
00000000a000344c g     F .text	000000000000006a sha224
00000000a0005170 g       .rodata	0000000000000000 _rodata_s
0000000000000000 g       .entry	0000000000000000 _ftext
00000000a0004c50 g       .text	0000000000000000 hwflush_dcache_line
00000000a000037a g     F .text	0000000000000036 Uart0_Tx
00000000a0001efe g     F .text	0000000000000042 DdrOff
00000000a000303a g     F .text	00000000000000c8 cdma_set
00000000a0004334 g     F .text	000000000000003a dmread8
00000000a00092a0 g     O .bss	0000000000000001 gbETX
00000000a00032a2 g     F .text	000000000000008c aes128_dec
00000000a0000588 g     F .text	000000000000000e Uart2_Irq
00000000a0002da8 g     F .text	00000000000000f2 dma_copy
00000000a0000a60 g     F .text	0000000000000034 Uart8_Rx
00000000a0000d24 g     F .text	000000000000004e main_1
00000000a000073a g     F .text	000000000000005a Uart5_Init
00000000a0001172 g     F .text	0000000000000138 DqG0OutDly
00000000a0000320 g     F .text	000000000000005a Uart0_Init
00000000a000470e g     F .text	0000000000000088 TxReg
00000000a0003214 g     F .text	000000000000008e aes128_enc
00000000a0001652 g     F .text	0000000000000040 DqOutDly
00000000a0000794 g     F .text	0000000000000036 Uart5_Tx
00000000a00092a8 g     O .bss	0000000000000001 gbParOn
00000000a000051e g     F .text	0000000000000036 Uart2_Tx
00000000a0000aa2 g     F .text	0000000000000036 sleep_
00000000a00051a0 g       *ABS*	0000000000000000 __data_lma_s
00000000a0002e9a g     F .text	00000000000000c8 dma_set
00000000a0005200 g     O .bss	0000000000000020 gnTxGrp
00000000a00092a2 g     O .bss	0000000000000002 gwRxAddr
00000000a000462c g     F .text	00000000000000e2 SetIsp
00000000a000436e g     F .text	000000000000003a dmread16
00000000a00092a1 g     O .bss	0000000000000001 gbRxStg
00000000a0005174 g       .rodata	0000000000000000 _rodata_e
00000000a00051e0 g     O .data	0000000000000008 mtime
00000000a000172e g     F .text	000000000000017c CaOutDly
00000000a0005168 g       .rodata	0000000000000000 _text_s
00000000a0000d72 g     F .text	000000000000004e main_2
00000000a00003e4 g     F .text	000000000000000e Uart0_Irq
00000000a00012aa g     F .text	0000000000000138 DqG1OutDly
00000000a00009d0 g     F .text	000000000000005a Uart8_Init
00000000a000089c g     F .text	0000000000000034 Uart6_Rx
00000000a0000866 g     F .text	0000000000000036 Uart6_Tx
00000000a000517c g     O .rodata	0000000000000004 _data_e
00000000a00004c4 g     F .text	000000000000005a Uart2_Init
00000000a00048a0 g     F .text	0000000000000352 Comm
00000000a000151a g     F .text	0000000000000138 DqG3OutDly
00000000a0001f5a g     F .text	0000000000000e4e DdrInit
00000000a0000482 g     F .text	0000000000000034 Uart1_Rx
00000000a0000ae8 g     F .text	0000000000000016 main_
00000000a00034b6 g     F .text	000000000000006c sha256
00000000a00007fe g     F .text	000000000000000e Uart5_Irq
00000000a0004c00 g       .text	0000000000000000 swflush_dcache_line
00000000a0005200 g       .bss	0000000000000000 _edata
00000000a0005180 g     O .rodata	0000000000000004 _bss_s
00000000a00092c0 g       .bss	0000000000000000 _end
00000000a0003962 g     F .text	0000000000000054 strnlen_
00000000a00003f2 g     F .text	000000000000005a Uart1_Init
00000000a0000958 g     F .text	0000000000000036 Uart7_Tx
00000000a0000afe g     F .text	0000000000000226 main_0
00000000a000080c g     F .text	000000000000005a Uart6_Init
00000000a0001e16 g     F .text	00000000000000a6 DdrGetId
00000000a0005200 g       .bss	0000000000000000 __bss_s
00000000a000411a g     F .text	00000000000000a4 _printf
00000000a00051a0 g       .rodata	0000000000000000 __rodata_e
00000000a0004276 g     F .text	0000000000000042 dmwrite16
00000000a00001d8 g       .entry	0000000000000000 __redirect_trap
00000000a0004c80 g       .text	0000000000000000 __text_e
00000000a0000e0e g     F .text	000000000000005a _init_bss_section
00000000a0005200 g       .bss	0000000000000000 _fbss
00000000a0003168 g     F .text	00000000000000ac aes_init
00000000a00051a0 g       .data	0000000000000000 __data_s
00000000a00033be g     F .text	000000000000008e aes256_dec
00000000a00008de g     F .text	000000000000007a Uart7_Init



Disassembly of section .entry:

00000000a0000000 <reset_vector>:
  .option norvc
  .section .text.init,"ax",@progbits
  .globl reset_vector

reset_vector:
  j do_reset
    a0000000:	1f80006f          	j	a00001f8 <do_reset>

00000000a0000004 <trap_vector>:

trap_vector:
  csrrw sp, mscratch, sp
    a0000004:	34011173          	csrrw	sp,mscratch,sp
  beqz sp, .Ltrap_from_machine_mode
    a0000008:	1a010863          	beqz	sp,a00001b8 <restore_regs+0x80>

  STORE a0, 10*REGBYTES(sp)
    a000000c:	04a13823          	sd	a0,80(sp)
  STORE a1, 11*REGBYTES(sp)
    a0000010:	04b13c23          	sd	a1,88(sp)

  csrr a1, mcause
    a0000014:	342025f3          	csrr	a1,mcause
  bgez a1, .Lhandle_trap_in_machine_mode
    a0000018:	0805d263          	bgez	a1,a000009c <trap_vector+0x98>

  # This is an interrupt.  Discard the mcause MSB and decode the rest.
  sll a1, a1, 1
    a000001c:	00159593          	slli	a1,a1,0x1

  # Is it a machine timer interrupt?
  li a0, IRQ_M_TIMER * 2
    a0000020:	00e00513          	li	a0,14
  bne a0, a1, 1f
    a0000024:	02b51263          	bne	a0,a1,a0000048 <trap_vector+0x44>

  # Yes.  Simply clear MSIE and raise SSIP.
  li a0, MIP_MTIP
    a0000028:	08000513          	li	a0,128
  csrc mie, a0
    a000002c:	30453073          	csrc	mie,a0
  li a0, MIP_STIP
    a0000030:	02000513          	li	a0,32
  csrs mip, a0
    a0000034:	34452073          	csrs	mip,a0

.Lmret:
  # Go back whence we came.
  LOAD a0, 10*REGBYTES(sp)
    a0000038:	05013503          	ld	a0,80(sp)
  LOAD a1, 11*REGBYTES(sp)
    a000003c:	05813583          	ld	a1,88(sp)
  csrrw sp, mscratch, sp
    a0000040:	34011173          	csrrw	sp,mscratch,sp
  mret
    a0000044:	30200073          	mret

1:
  # Is it an IPI?
  li a0, IRQ_M_SOFT * 2
    a0000048:	00600513          	li	a0,6
  bne a0, a1, .Lbad_trap
    a000004c:	18b51263          	bne	a0,a1,a00001d0 <restore_regs+0x98>

  # Yes.  First, clear the MIPI bit.
  LOAD a0, MENTRY_IPI_OFFSET(sp)
    a0000050:	10013503          	ld	a0,256(sp)
  sw x0, (a0)
    a0000054:	00052023          	sw	zero,0(a0)
  fence
    a0000058:	0ff0000f          	fence

  # Now, decode the cause(s).
#ifdef __riscv_atomic
  addi a0, sp, MENTRY_IPI_PENDING_OFFSET
    a000005c:	10810513          	addi	a0,sp,264
  amoswap.w a0, x0, (a0)
    a0000060:	0805252f          	amoswap.w	a0,zero,(a0)
#else
  lw a0, MENTRY_IPI_PENDING_OFFSET(a0)
  sw x0, MENTRY_IPI_PENDING_OFFSET(a0)
#endif
  and a1, a0, IPI_SOFT
    a0000064:	00157593          	andi	a1,a0,1
  beqz a1, 1f
    a0000068:	00058463          	beqz	a1,a0000070 <trap_vector+0x6c>
  csrs mip, MIP_SSIP
    a000006c:	34416073          	csrsi	mip,2
1:
  andi a1, a0, IPI_FENCE_I
    a0000070:	00257593          	andi	a1,a0,2
  beqz a1, 1f
    a0000074:	00058463          	beqz	a1,a000007c <trap_vector+0x78>
  fence.i
    a0000078:	0000100f          	fence.i
1:
  andi a1, a0, IPI_SFENCE_VMA
    a000007c:	00457593          	andi	a1,a0,4
  beqz a1, 1f
    a0000080:	00058463          	beqz	a1,a0000088 <trap_vector+0x84>
  sfence.vma
    a0000084:	12000073          	sfence.vma
1:
  andi a1, a0, IPI_HALT
    a0000088:	00857593          	andi	a1,a0,8
  beqz a1, 1f
    a000008c:	00058663          	beqz	a1,a0000098 <trap_vector+0x94>
  wfi
    a0000090:	10500073          	wfi
  j 1b
    a0000094:	ff5ff06f          	j	a0000088 <trap_vector+0x84>
1:
  j .Lmret
    a0000098:	fa1ff06f          	j	a0000038 <trap_vector+0x34>


.Lhandle_trap_in_machine_mode:
  # Preserve the registers.  Compute the address of the trap handler.
  STORE ra, 1*REGBYTES(sp)
    a000009c:	00113423          	sd	ra,8(sp)
  STORE gp, 3*REGBYTES(sp)
    a00000a0:	00313c23          	sd	gp,24(sp)
  STORE tp, 4*REGBYTES(sp)
    a00000a4:	02413023          	sd	tp,32(sp)
  STORE t0, 5*REGBYTES(sp)
    a00000a8:	02513423          	sd	t0,40(sp)
1:auipc t0, %pcrel_hi(trap_table)  # t0 <- %hi(trap_table)
    a00000ac:	00005297          	auipc	t0,0x5
  STORE t1, 6*REGBYTES(sp)
    a00000b0:	02613823          	sd	t1,48(sp)
  sll t1, a1, 2                    # t1 <- mcause << 2
    a00000b4:	00259313          	slli	t1,a1,0x2
  STORE t2, 7*REGBYTES(sp)
    a00000b8:	02713c23          	sd	t2,56(sp)
  add t1, t0, t1                   # t1 <- %hi(trap_table)[mcause]
    a00000bc:	00628333          	add	t1,t0,t1
  STORE s0, 8*REGBYTES(sp)
    a00000c0:	04813023          	sd	s0,64(sp)
  LWU t1, %pcrel_lo(1b)(t1)         # t1 <- trap_table[mcause]
    a00000c4:	0f436303          	lwu	t1,244(t1)
  STORE s1, 9*REGBYTES(sp)
    a00000c8:	04913423          	sd	s1,72(sp)
  mv a0, sp                        # a0 <- regs
    a00000cc:	00010513          	mv	a0,sp
  STORE a2,12*REGBYTES(sp)
    a00000d0:	06c13023          	sd	a2,96(sp)
  csrr a2, mepc                    # a2 <- mepc
    a00000d4:	34102673          	csrr	a2,mepc
  STORE a3,13*REGBYTES(sp)
    a00000d8:	06d13423          	sd	a3,104(sp)
  csrrw t0, mscratch, x0           # t0 <- user sp
    a00000dc:	340012f3          	csrrw	t0,mscratch,zero
  STORE a4,14*REGBYTES(sp)
    a00000e0:	06e13823          	sd	a4,112(sp)
  STORE a5,15*REGBYTES(sp)
    a00000e4:	06f13c23          	sd	a5,120(sp)
  STORE a6,16*REGBYTES(sp)
    a00000e8:	09013023          	sd	a6,128(sp)
  STORE a7,17*REGBYTES(sp)
    a00000ec:	09113423          	sd	a7,136(sp)
  STORE s2,18*REGBYTES(sp)
    a00000f0:	09213823          	sd	s2,144(sp)
  STORE s3,19*REGBYTES(sp)
    a00000f4:	09313c23          	sd	s3,152(sp)
  STORE s4,20*REGBYTES(sp)
    a00000f8:	0b413023          	sd	s4,160(sp)
  STORE s5,21*REGBYTES(sp)
    a00000fc:	0b513423          	sd	s5,168(sp)
  STORE s6,22*REGBYTES(sp)
    a0000100:	0b613823          	sd	s6,176(sp)
  STORE s7,23*REGBYTES(sp)
    a0000104:	0b713c23          	sd	s7,184(sp)
  STORE s8,24*REGBYTES(sp)
    a0000108:	0d813023          	sd	s8,192(sp)
  STORE s9,25*REGBYTES(sp)
    a000010c:	0d913423          	sd	s9,200(sp)
  STORE s10,26*REGBYTES(sp)
    a0000110:	0da13823          	sd	s10,208(sp)
  STORE s11,27*REGBYTES(sp)
    a0000114:	0db13c23          	sd	s11,216(sp)
  STORE t3,28*REGBYTES(sp)
    a0000118:	0fc13023          	sd	t3,224(sp)
  STORE t4,29*REGBYTES(sp)
    a000011c:	0fd13423          	sd	t4,232(sp)
  STORE t5,30*REGBYTES(sp)
    a0000120:	0fe13823          	sd	t5,240(sp)
  STORE t6,31*REGBYTES(sp)
    a0000124:	0ff13c23          	sd	t6,248(sp)
  STORE t0, 2*REGBYTES(sp)         # sp
    a0000128:	00513823          	sd	t0,16(sp)

#ifndef __riscv_flen
  lw tp, (sp) # Move the emulated FCSR from x0's save slot into tp.
#endif
  STORE x0, (sp) # Zero x0's save slot.
    a000012c:	00013023          	sd	zero,0(sp)

  # Invoke the handler.
  jalr t1
    a0000130:	000300e7          	jalr	t1

00000000a0000134 <restore_mscratch>:
  sw tp, (sp) # Move the emulated FCSR from tp into x0's save slot.
#endif

restore_mscratch:
  # Restore mscratch, so future traps will know they didn't come from M-mode.
  csrw mscratch, sp
    a0000134:	34011073          	csrw	mscratch,sp

00000000a0000138 <restore_regs>:

restore_regs:
  # Restore all of the registers.
  LOAD ra, 1*REGBYTES(sp)
    a0000138:	00813083          	ld	ra,8(sp)
  LOAD gp, 3*REGBYTES(sp)
    a000013c:	01813183          	ld	gp,24(sp)
  LOAD tp, 4*REGBYTES(sp)
    a0000140:	02013203          	ld	tp,32(sp)
  LOAD t0, 5*REGBYTES(sp)
    a0000144:	02813283          	ld	t0,40(sp)
  LOAD t1, 6*REGBYTES(sp)
    a0000148:	03013303          	ld	t1,48(sp)
  LOAD t2, 7*REGBYTES(sp)
    a000014c:	03813383          	ld	t2,56(sp)
  LOAD s0, 8*REGBYTES(sp)
    a0000150:	04013403          	ld	s0,64(sp)
  LOAD s1, 9*REGBYTES(sp)
    a0000154:	04813483          	ld	s1,72(sp)
  LOAD a0,10*REGBYTES(sp)
    a0000158:	05013503          	ld	a0,80(sp)
  LOAD a1,11*REGBYTES(sp)
    a000015c:	05813583          	ld	a1,88(sp)
  LOAD a2,12*REGBYTES(sp)
    a0000160:	06013603          	ld	a2,96(sp)
  LOAD a3,13*REGBYTES(sp)
    a0000164:	06813683          	ld	a3,104(sp)
  LOAD a4,14*REGBYTES(sp)
    a0000168:	07013703          	ld	a4,112(sp)
  LOAD a5,15*REGBYTES(sp)
    a000016c:	07813783          	ld	a5,120(sp)
  LOAD a6,16*REGBYTES(sp)
    a0000170:	08013803          	ld	a6,128(sp)
  LOAD a7,17*REGBYTES(sp)
    a0000174:	08813883          	ld	a7,136(sp)
  LOAD s2,18*REGBYTES(sp)
    a0000178:	09013903          	ld	s2,144(sp)
  LOAD s3,19*REGBYTES(sp)
    a000017c:	09813983          	ld	s3,152(sp)
  LOAD s4,20*REGBYTES(sp)
    a0000180:	0a013a03          	ld	s4,160(sp)
  LOAD s5,21*REGBYTES(sp)
    a0000184:	0a813a83          	ld	s5,168(sp)
  LOAD s6,22*REGBYTES(sp)
    a0000188:	0b013b03          	ld	s6,176(sp)
  LOAD s7,23*REGBYTES(sp)
    a000018c:	0b813b83          	ld	s7,184(sp)
  LOAD s8,24*REGBYTES(sp)
    a0000190:	0c013c03          	ld	s8,192(sp)
  LOAD s9,25*REGBYTES(sp)
    a0000194:	0c813c83          	ld	s9,200(sp)
  LOAD s10,26*REGBYTES(sp)
    a0000198:	0d013d03          	ld	s10,208(sp)
  LOAD s11,27*REGBYTES(sp)
    a000019c:	0d813d83          	ld	s11,216(sp)
  LOAD t3,28*REGBYTES(sp)
    a00001a0:	0e013e03          	ld	t3,224(sp)
  LOAD t4,29*REGBYTES(sp)
    a00001a4:	0e813e83          	ld	t4,232(sp)
  LOAD t5,30*REGBYTES(sp)
    a00001a8:	0f013f03          	ld	t5,240(sp)
  LOAD t6,31*REGBYTES(sp)
    a00001ac:	0f813f83          	ld	t6,248(sp)
  LOAD sp, 2*REGBYTES(sp)
    a00001b0:	01013103          	ld	sp,16(sp)
  mret
    a00001b4:	30200073          	mret

.Ltrap_from_machine_mode:
  csrr sp, mscratch
    a00001b8:	34002173          	csrr	sp,mscratch
  addi sp, sp, -INTEGER_CONTEXT_SIZE
    a00001bc:	f0010113          	addi	sp,sp,-256
  STORE a0,10*REGBYTES(sp)
    a00001c0:	04a13823          	sd	a0,80(sp)
  STORE a1,11*REGBYTES(sp)
    a00001c4:	04b13c23          	sd	a1,88(sp)
  li a1, TRAP_FROM_MACHINE_MODE_VECTOR
    a00001c8:	00d00593          	li	a1,13
  j .Lhandle_trap_in_machine_mode
    a00001cc:	ed1ff06f          	j	a000009c <trap_vector+0x98>

.Lbad_trap:
  li a1, BAD_TRAP_VECTOR
    a00001d0:	00000593          	li	a1,0
  j .Lhandle_trap_in_machine_mode
    a00001d4:	ec9ff06f          	j	a000009c <trap_vector+0x98>

00000000a00001d8 <__redirect_trap>:

  .globl __redirect_trap
__redirect_trap:
  # reset sp to top of M-mode stack
  li t0, MACHINE_STACK_SIZE
    a00001d8:	000012b7          	lui	t0,0x1
  add sp, sp, t0
    a00001dc:	00510133          	add	sp,sp,t0
  neg t0, t0
    a00001e0:	405002b3          	neg	t0,t0
  and sp, sp, t0
    a00001e4:	00517133          	and	sp,sp,t0
  addi sp, sp, -MENTRY_FRAME_SIZE
    a00001e8:	ec010113          	addi	sp,sp,-320
  j restore_mscratch
    a00001ec:	f49ff06f          	j	a0000134 <restore_mscratch>

00000000a00001f0 <__trap_from_machine_mode>:

__trap_from_machine_mode:
  jal main_
    a00001f0:	0f9000ef          	jal	ra,a0000ae8 <main_>
  j restore_regs
    a00001f4:	f45ff06f          	j	a0000138 <restore_regs>

00000000a00001f8 <do_reset>:

do_reset:
  li x1, 0
    a00001f8:	00000093          	li	ra,0
  li x2, 0
    a00001fc:	00000113          	li	sp,0
  li x3, 0
    a0000200:	00000193          	li	gp,0
  li x4, 0
    a0000204:	00000213          	li	tp,0
  li x5, 0
    a0000208:	00000293          	li	t0,0
  li x6, 0
    a000020c:	00000313          	li	t1,0
  li x7, 0
    a0000210:	00000393          	li	t2,0
  li x8, 0
    a0000214:	00000413          	li	s0,0
  li x9, 0
    a0000218:	00000493          	li	s1,0
// save a0 and a1; arguments from previous boot loader stage:
//  li x10, 0
//  li x11, 0
  li x12, 0
    a000021c:	00000613          	li	a2,0
  li x13, 0
    a0000220:	00000693          	li	a3,0
  li x14, 0
    a0000224:	00000713          	li	a4,0
  li x15, 0
    a0000228:	00000793          	li	a5,0
  li x16, 0
    a000022c:	00000813          	li	a6,0
  li x17, 0
    a0000230:	00000893          	li	a7,0
  li x18, 0
    a0000234:	00000913          	li	s2,0
  li x19, 0
    a0000238:	00000993          	li	s3,0
  li x20, 0
    a000023c:	00000a13          	li	s4,0
  li x21, 0
    a0000240:	00000a93          	li	s5,0
  li x22, 0
    a0000244:	00000b13          	li	s6,0
  li x23, 0
    a0000248:	00000b93          	li	s7,0
  li x24, 0
    a000024c:	00000c13          	li	s8,0
  li x25, 0
    a0000250:	00000c93          	li	s9,0
  li x26, 0
    a0000254:	00000d13          	li	s10,0
  li x27, 0
    a0000258:	00000d93          	li	s11,0
  li x28, 0
    a000025c:	00000e13          	li	t3,0
  li x29, 0
    a0000260:	00000e93          	li	t4,0
  li x30, 0
    a0000264:	00000f13          	li	t5,0
  li x31, 0
    a0000268:	00000f93          	li	t6,0
  csrw mscratch, x0
    a000026c:	34001073          	csrw	mscratch,zero

  # write mtvec and make sure it sticks
  la t0, trap_vector
    a0000270:	00000297          	auipc	t0,0x0
    a0000274:	d9428293          	addi	t0,t0,-620 # a0000004 <trap_vector>
  csrw mtvec, t0
    a0000278:	30529073          	csrw	mtvec,t0
  csrr t1, mtvec
    a000027c:	30502373          	csrr	t1,mtvec
1:bne t0, t1, 1b
    a0000280:	00629063          	bne	t0,t1,a0000280 <do_reset+0x88>

 # la sp, stacks + RISCV_PGSIZE - MENTRY_FRAME_SIZE +0x10000
  li sp, 0xA003C000
    a0000284:	00028137          	lui	sp,0x28
    a0000288:	00f1011b          	addiw	sp,sp,15
    a000028c:	00e11113          	slli	sp,sp,0xe

  csrr a3, mhartid
    a0000290:	f14026f3          	csrr	a3,mhartid
  slli a2, a3, RISCV_PGSHIFT
    a0000294:	00c69613          	slli	a2,a3,0xc
  add sp, sp, a2
    a0000298:	00c10133          	add	sp,sp,a2

  # Boot on the first hart
 # beqz a3, main_0
  li a4, 1
    a000029c:	00100713          	li	a4,1
  beq a3, a4, main_1
    a00002a0:	00e69463          	bne	a3,a4,a00002a8 <do_reset+0xb0>
    a00002a4:	2810006f          	j	a0000d24 <main_1>
  li a4, 2
    a00002a8:	00200713          	li	a4,2
  beq a3, a4, main_2
    a00002ac:	00e69463          	bne	a3,a4,a00002b4 <do_reset+0xbc>
    a00002b0:	2c30006f          	j	a0000d72 <main_2>
  li a4, 3
    a00002b4:	00300713          	li	a4,3
  beq a3, a4, main_3
    a00002b8:	00e69463          	bne	a3,a4,a00002c0 <do_reset+0xc8>
    a00002bc:	3050006f          	j	a0000dc0 <main_3>
  li a4, 0
    a00002c0:	00000713          	li	a4,0
  beq a3, a4, main_0
    a00002c4:	00e69463          	bne	a3,a4,a00002cc <do_reset+0xd4>
    a00002c8:	0370006f          	j	a0000afe <main_0>



  # set MSIE bit to receive IPI
  li a2, MIP_MSIP
    a00002cc:	00800613          	li	a2,8
  csrw mie, a2
    a00002d0:	30461073          	csrw	mie,a2

.LmultiHart:
#if MAX_HARTS > 1
  # wait for an IPI to signal that it's safe to boot
  wfi
    a00002d4:	10500073          	wfi

  # masked harts never start
  la a4, main_
    a00002d8:	00001717          	auipc	a4,0x1
    a00002dc:	81070713          	addi	a4,a4,-2032 # a0000ae8 <main_>
  LOAD a4, 0(a4)
    a00002e0:	00073703          	ld	a4,0(a4)
  srl a4, a4, a3
    a00002e4:	00d75733          	srl	a4,a4,a3
  andi a4, a4, 1
    a00002e8:	00177713          	andi	a4,a4,1
  bnez a4, .LmultiHart
    a00002ec:	fe0714e3          	bnez	a4,a00002d4 <do_reset+0xdc>

  # only start if mip is set
  csrr a2, mip
    a00002f0:	34402673          	csrr	a2,mip
  andi a2, a2, MIP_MSIP
    a00002f4:	00867613          	andi	a2,a2,8
  beqz a2, .LmultiHart
    a00002f8:	fc060ee3          	beqz	a2,a00002d4 <do_reset+0xdc>

  # make sure our hart id is within a valid range
  fence
    a00002fc:	0ff0000f          	fence
  li a2, MAX_HARTS
    a0000300:	00400613          	li	a2,4
  bltu a3, a2, main_
    a0000304:	00c6f463          	bleu	a2,a3,a000030c <do_reset+0x114>
    a0000308:	7e00006f          	j	a0000ae8 <main_>
#endif
  wfi
    a000030c:	10500073          	wfi
  j .LmultiHart
    a0000310:	fc5ff06f          	j	a00002d4 <do_reset+0xdc>
	...

Disassembly of section .text:

00000000a0000320 <Uart0_Init>:
#include "en675.h"
#include "reg.h"

void Uart0_Init(unsigned int BaudRate){UART0_CLK_DIV = (MCK_FREQ/(BaudRate<<4))-1;}
    a0000320:	1101                	addi	sp,sp,-32
    a0000322:	ec22                	sd	s0,24(sp)
    a0000324:	1000                	addi	s0,sp,32
    a0000326:	87aa                	mv	a5,a0
    a0000328:	fef42623          	sw	a5,-20(s0)
    a000032c:	fec42783          	lw	a5,-20(s0)
    a0000330:	0047979b          	slliw	a5,a5,0x4
    a0000334:	2781                	sext.w	a5,a5
    a0000336:	02faf737          	lui	a4,0x2faf
    a000033a:	0807071b          	addiw	a4,a4,128
    a000033e:	02f757bb          	divuw	a5,a4,a5
    a0000342:	2781                	sext.w	a5,a5
    a0000344:	17c2                	slli	a5,a5,0x30
    a0000346:	93c1                	srli	a5,a5,0x30
    a0000348:	37fd                	addiw	a5,a5,-1
    a000034a:	03079713          	slli	a4,a5,0x30
    a000034e:	9341                	srli	a4,a4,0x30
    a0000350:	444007b7          	lui	a5,0x44400
    a0000354:	86ba                	mv	a3,a4
    a0000356:	6705                	lui	a4,0x1
    a0000358:	177d                	addi	a4,a4,-1
    a000035a:	8f75                	and	a4,a4,a3
    a000035c:	1742                	slli	a4,a4,0x30
    a000035e:	9341                	srli	a4,a4,0x30
    a0000360:	0147171b          	slliw	a4,a4,0x14
    a0000364:	4390                	lw	a2,0(a5)
    a0000366:	001006b7          	lui	a3,0x100
    a000036a:	16fd                	addi	a3,a3,-1
    a000036c:	8ef1                	and	a3,a3,a2
    a000036e:	8f55                	or	a4,a4,a3
    a0000370:	c398                	sw	a4,0(a5)
    a0000372:	0001                	nop
    a0000374:	6462                	ld	s0,24(sp)
    a0000376:	6105                	addi	sp,sp,32
    a0000378:	8082                	ret

00000000a000037a <Uart0_Tx>:
void Uart0_Tx(char data){while(UART0_TX_FULL);UART0_TX_DAT = data;}
    a000037a:	1101                	addi	sp,sp,-32
    a000037c:	ec22                	sd	s0,24(sp)
    a000037e:	1000                	addi	s0,sp,32
    a0000380:	87aa                	mv	a5,a0
    a0000382:	fef407a3          	sb	a5,-17(s0)
    a0000386:	0001                	nop
    a0000388:	444007b7          	lui	a5,0x44400
    a000038c:	439c                	lw	a5,0(a5)
    a000038e:	0057d79b          	srliw	a5,a5,0x5
    a0000392:	8b85                	andi	a5,a5,1
    a0000394:	0ff7f793          	andi	a5,a5,255
    a0000398:	fbe5                	bnez	a5,a0000388 <Uart0_Tx+0xe>
    a000039a:	444007b7          	lui	a5,0x44400
    a000039e:	07c1                	addi	a5,a5,16
    a00003a0:	fef44703          	lbu	a4,-17(s0)
    a00003a4:	00e78023          	sb	a4,0(a5) # 44400000 <_ftext+0x44400000>
    a00003a8:	0001                	nop
    a00003aa:	6462                	ld	s0,24(sp)
    a00003ac:	6105                	addi	sp,sp,32
    a00003ae:	8082                	ret

00000000a00003b0 <Uart0_Rx>:
int Uart0_Rx(void){if(UART0_RX_EMPTY) return -1; else return (int)(UART0_RX_DAT & 0xff);}
    a00003b0:	1141                	addi	sp,sp,-16
    a00003b2:	e422                	sd	s0,8(sp)
    a00003b4:	0800                	addi	s0,sp,16
    a00003b6:	444007b7          	lui	a5,0x44400
    a00003ba:	439c                	lw	a5,0(a5)
    a00003bc:	0017d79b          	srliw	a5,a5,0x1
    a00003c0:	8b85                	andi	a5,a5,1
    a00003c2:	0ff7f793          	andi	a5,a5,255
    a00003c6:	c399                	beqz	a5,a00003cc <Uart0_Rx+0x1c>
    a00003c8:	57fd                	li	a5,-1
    a00003ca:	a809                	j	a00003dc <Uart0_Rx+0x2c>
    a00003cc:	444007b7          	lui	a5,0x44400
    a00003d0:	07a1                	addi	a5,a5,8
    a00003d2:	0007c783          	lbu	a5,0(a5) # 44400000 <_ftext+0x44400000>
    a00003d6:	0ff7f793          	andi	a5,a5,255
    a00003da:	2781                	sext.w	a5,a5
    a00003dc:	853e                	mv	a0,a5
    a00003de:	6422                	ld	s0,8(sp)
    a00003e0:	0141                	addi	sp,sp,16
    a00003e2:	8082                	ret

00000000a00003e4 <Uart0_Irq>:
void Uart0_Irq(void){}
    a00003e4:	1141                	addi	sp,sp,-16
    a00003e6:	e422                	sd	s0,8(sp)
    a00003e8:	0800                	addi	s0,sp,16
    a00003ea:	0001                	nop
    a00003ec:	6422                	ld	s0,8(sp)
    a00003ee:	0141                	addi	sp,sp,16
    a00003f0:	8082                	ret

00000000a00003f2 <Uart1_Init>:

void Uart1_Init(unsigned int BaudRate){UART1_CLK_DIV = (MCK_FREQ/(BaudRate<<4))-1;}
    a00003f2:	1101                	addi	sp,sp,-32
    a00003f4:	ec22                	sd	s0,24(sp)
    a00003f6:	1000                	addi	s0,sp,32
    a00003f8:	87aa                	mv	a5,a0
    a00003fa:	fef42623          	sw	a5,-20(s0)
    a00003fe:	fec42783          	lw	a5,-20(s0)
    a0000402:	0047979b          	slliw	a5,a5,0x4
    a0000406:	2781                	sext.w	a5,a5
    a0000408:	02faf737          	lui	a4,0x2faf
    a000040c:	0807071b          	addiw	a4,a4,128
    a0000410:	02f757bb          	divuw	a5,a4,a5
    a0000414:	2781                	sext.w	a5,a5
    a0000416:	17c2                	slli	a5,a5,0x30
    a0000418:	93c1                	srli	a5,a5,0x30
    a000041a:	37fd                	addiw	a5,a5,-1
    a000041c:	03079713          	slli	a4,a5,0x30
    a0000420:	9341                	srli	a4,a4,0x30
    a0000422:	445007b7          	lui	a5,0x44500
    a0000426:	86ba                	mv	a3,a4
    a0000428:	6705                	lui	a4,0x1
    a000042a:	177d                	addi	a4,a4,-1
    a000042c:	8f75                	and	a4,a4,a3
    a000042e:	1742                	slli	a4,a4,0x30
    a0000430:	9341                	srli	a4,a4,0x30
    a0000432:	0147171b          	slliw	a4,a4,0x14
    a0000436:	4390                	lw	a2,0(a5)
    a0000438:	001006b7          	lui	a3,0x100
    a000043c:	16fd                	addi	a3,a3,-1
    a000043e:	8ef1                	and	a3,a3,a2
    a0000440:	8f55                	or	a4,a4,a3
    a0000442:	c398                	sw	a4,0(a5)
    a0000444:	0001                	nop
    a0000446:	6462                	ld	s0,24(sp)
    a0000448:	6105                	addi	sp,sp,32
    a000044a:	8082                	ret

00000000a000044c <Uart1_Tx>:
void Uart1_Tx(char data){while(UART1_TX_FULL);UART1_TX_DAT = data;}
    a000044c:	1101                	addi	sp,sp,-32
    a000044e:	ec22                	sd	s0,24(sp)
    a0000450:	1000                	addi	s0,sp,32
    a0000452:	87aa                	mv	a5,a0
    a0000454:	fef407a3          	sb	a5,-17(s0)
    a0000458:	0001                	nop
    a000045a:	445007b7          	lui	a5,0x44500
    a000045e:	439c                	lw	a5,0(a5)
    a0000460:	0057d79b          	srliw	a5,a5,0x5
    a0000464:	8b85                	andi	a5,a5,1
    a0000466:	0ff7f793          	andi	a5,a5,255
    a000046a:	fbe5                	bnez	a5,a000045a <Uart1_Tx+0xe>
    a000046c:	445007b7          	lui	a5,0x44500
    a0000470:	07c1                	addi	a5,a5,16
    a0000472:	fef44703          	lbu	a4,-17(s0)
    a0000476:	00e78023          	sb	a4,0(a5) # 44500000 <_ftext+0x44500000>
    a000047a:	0001                	nop
    a000047c:	6462                	ld	s0,24(sp)
    a000047e:	6105                	addi	sp,sp,32
    a0000480:	8082                	ret

00000000a0000482 <Uart1_Rx>:
int Uart1_Rx(void){if(UART1_RX_EMPTY) return -1; else return (int)(UART1_RX_DAT & 0xff);}
    a0000482:	1141                	addi	sp,sp,-16
    a0000484:	e422                	sd	s0,8(sp)
    a0000486:	0800                	addi	s0,sp,16
    a0000488:	445007b7          	lui	a5,0x44500
    a000048c:	439c                	lw	a5,0(a5)
    a000048e:	0017d79b          	srliw	a5,a5,0x1
    a0000492:	8b85                	andi	a5,a5,1
    a0000494:	0ff7f793          	andi	a5,a5,255
    a0000498:	c399                	beqz	a5,a000049e <Uart1_Rx+0x1c>
    a000049a:	57fd                	li	a5,-1
    a000049c:	a809                	j	a00004ae <Uart1_Rx+0x2c>
    a000049e:	445007b7          	lui	a5,0x44500
    a00004a2:	07a1                	addi	a5,a5,8
    a00004a4:	0007c783          	lbu	a5,0(a5) # 44500000 <_ftext+0x44500000>
    a00004a8:	0ff7f793          	andi	a5,a5,255
    a00004ac:	2781                	sext.w	a5,a5
    a00004ae:	853e                	mv	a0,a5
    a00004b0:	6422                	ld	s0,8(sp)
    a00004b2:	0141                	addi	sp,sp,16
    a00004b4:	8082                	ret

00000000a00004b6 <Uart1_Irq>:
void Uart1_Irq(void){}
    a00004b6:	1141                	addi	sp,sp,-16
    a00004b8:	e422                	sd	s0,8(sp)
    a00004ba:	0800                	addi	s0,sp,16
    a00004bc:	0001                	nop
    a00004be:	6422                	ld	s0,8(sp)
    a00004c0:	0141                	addi	sp,sp,16
    a00004c2:	8082                	ret

00000000a00004c4 <Uart2_Init>:

void Uart2_Init(unsigned int BaudRate){UART2_CLK_DIV = (MCK_FREQ/(BaudRate<<4))-1;}
    a00004c4:	1101                	addi	sp,sp,-32
    a00004c6:	ec22                	sd	s0,24(sp)
    a00004c8:	1000                	addi	s0,sp,32
    a00004ca:	87aa                	mv	a5,a0
    a00004cc:	fef42623          	sw	a5,-20(s0)
    a00004d0:	fec42783          	lw	a5,-20(s0)
    a00004d4:	0047979b          	slliw	a5,a5,0x4
    a00004d8:	2781                	sext.w	a5,a5
    a00004da:	02faf737          	lui	a4,0x2faf
    a00004de:	0807071b          	addiw	a4,a4,128
    a00004e2:	02f757bb          	divuw	a5,a4,a5
    a00004e6:	2781                	sext.w	a5,a5
    a00004e8:	17c2                	slli	a5,a5,0x30
    a00004ea:	93c1                	srli	a5,a5,0x30
    a00004ec:	37fd                	addiw	a5,a5,-1
    a00004ee:	03079713          	slli	a4,a5,0x30
    a00004f2:	9341                	srli	a4,a4,0x30
    a00004f4:	446007b7          	lui	a5,0x44600
    a00004f8:	86ba                	mv	a3,a4
    a00004fa:	6705                	lui	a4,0x1
    a00004fc:	177d                	addi	a4,a4,-1
    a00004fe:	8f75                	and	a4,a4,a3
    a0000500:	1742                	slli	a4,a4,0x30
    a0000502:	9341                	srli	a4,a4,0x30
    a0000504:	0147171b          	slliw	a4,a4,0x14
    a0000508:	4390                	lw	a2,0(a5)
    a000050a:	001006b7          	lui	a3,0x100
    a000050e:	16fd                	addi	a3,a3,-1
    a0000510:	8ef1                	and	a3,a3,a2
    a0000512:	8f55                	or	a4,a4,a3
    a0000514:	c398                	sw	a4,0(a5)
    a0000516:	0001                	nop
    a0000518:	6462                	ld	s0,24(sp)
    a000051a:	6105                	addi	sp,sp,32
    a000051c:	8082                	ret

00000000a000051e <Uart2_Tx>:
void Uart2_Tx(char data){while(UART2_TX_FULL);UART2_TX_DAT = data;}
    a000051e:	1101                	addi	sp,sp,-32
    a0000520:	ec22                	sd	s0,24(sp)
    a0000522:	1000                	addi	s0,sp,32
    a0000524:	87aa                	mv	a5,a0
    a0000526:	fef407a3          	sb	a5,-17(s0)
    a000052a:	0001                	nop
    a000052c:	446007b7          	lui	a5,0x44600
    a0000530:	439c                	lw	a5,0(a5)
    a0000532:	0057d79b          	srliw	a5,a5,0x5
    a0000536:	8b85                	andi	a5,a5,1
    a0000538:	0ff7f793          	andi	a5,a5,255
    a000053c:	fbe5                	bnez	a5,a000052c <Uart2_Tx+0xe>
    a000053e:	446007b7          	lui	a5,0x44600
    a0000542:	07c1                	addi	a5,a5,16
    a0000544:	fef44703          	lbu	a4,-17(s0)
    a0000548:	00e78023          	sb	a4,0(a5) # 44600000 <_ftext+0x44600000>
    a000054c:	0001                	nop
    a000054e:	6462                	ld	s0,24(sp)
    a0000550:	6105                	addi	sp,sp,32
    a0000552:	8082                	ret

00000000a0000554 <Uart2_Rx>:
int Uart2_Rx(void){if(UART2_RX_EMPTY) return -1; else return (int)(UART2_RX_DAT & 0xff);}
    a0000554:	1141                	addi	sp,sp,-16
    a0000556:	e422                	sd	s0,8(sp)
    a0000558:	0800                	addi	s0,sp,16
    a000055a:	446007b7          	lui	a5,0x44600
    a000055e:	439c                	lw	a5,0(a5)
    a0000560:	0017d79b          	srliw	a5,a5,0x1
    a0000564:	8b85                	andi	a5,a5,1
    a0000566:	0ff7f793          	andi	a5,a5,255
    a000056a:	c399                	beqz	a5,a0000570 <Uart2_Rx+0x1c>
    a000056c:	57fd                	li	a5,-1
    a000056e:	a809                	j	a0000580 <Uart2_Rx+0x2c>
    a0000570:	446007b7          	lui	a5,0x44600
    a0000574:	07a1                	addi	a5,a5,8
    a0000576:	0007c783          	lbu	a5,0(a5) # 44600000 <_ftext+0x44600000>
    a000057a:	0ff7f793          	andi	a5,a5,255
    a000057e:	2781                	sext.w	a5,a5
    a0000580:	853e                	mv	a0,a5
    a0000582:	6422                	ld	s0,8(sp)
    a0000584:	0141                	addi	sp,sp,16
    a0000586:	8082                	ret

00000000a0000588 <Uart2_Irq>:
void Uart2_Irq(void){}
    a0000588:	1141                	addi	sp,sp,-16
    a000058a:	e422                	sd	s0,8(sp)
    a000058c:	0800                	addi	s0,sp,16
    a000058e:	0001                	nop
    a0000590:	6422                	ld	s0,8(sp)
    a0000592:	0141                	addi	sp,sp,16
    a0000594:	8082                	ret

00000000a0000596 <Uart3_Init>:

void Uart3_Init(unsigned int BaudRate){UART3_CLK_DIV = (MCK_FREQ/(BaudRate<<4))-1;}
    a0000596:	1101                	addi	sp,sp,-32
    a0000598:	ec22                	sd	s0,24(sp)
    a000059a:	1000                	addi	s0,sp,32
    a000059c:	87aa                	mv	a5,a0
    a000059e:	fef42623          	sw	a5,-20(s0)
    a00005a2:	fec42783          	lw	a5,-20(s0)
    a00005a6:	0047979b          	slliw	a5,a5,0x4
    a00005aa:	2781                	sext.w	a5,a5
    a00005ac:	02faf737          	lui	a4,0x2faf
    a00005b0:	0807071b          	addiw	a4,a4,128
    a00005b4:	02f757bb          	divuw	a5,a4,a5
    a00005b8:	2781                	sext.w	a5,a5
    a00005ba:	17c2                	slli	a5,a5,0x30
    a00005bc:	93c1                	srli	a5,a5,0x30
    a00005be:	37fd                	addiw	a5,a5,-1
    a00005c0:	03079713          	slli	a4,a5,0x30
    a00005c4:	9341                	srli	a4,a4,0x30
    a00005c6:	447007b7          	lui	a5,0x44700
    a00005ca:	86ba                	mv	a3,a4
    a00005cc:	6705                	lui	a4,0x1
    a00005ce:	177d                	addi	a4,a4,-1
    a00005d0:	8f75                	and	a4,a4,a3
    a00005d2:	1742                	slli	a4,a4,0x30
    a00005d4:	9341                	srli	a4,a4,0x30
    a00005d6:	0147171b          	slliw	a4,a4,0x14
    a00005da:	4390                	lw	a2,0(a5)
    a00005dc:	001006b7          	lui	a3,0x100
    a00005e0:	16fd                	addi	a3,a3,-1
    a00005e2:	8ef1                	and	a3,a3,a2
    a00005e4:	8f55                	or	a4,a4,a3
    a00005e6:	c398                	sw	a4,0(a5)
    a00005e8:	0001                	nop
    a00005ea:	6462                	ld	s0,24(sp)
    a00005ec:	6105                	addi	sp,sp,32
    a00005ee:	8082                	ret

00000000a00005f0 <Uart3_Tx>:
void Uart3_Tx(char data){while(UART3_TX_FULL);UART3_TX_DAT = data;}
    a00005f0:	1101                	addi	sp,sp,-32
    a00005f2:	ec22                	sd	s0,24(sp)
    a00005f4:	1000                	addi	s0,sp,32
    a00005f6:	87aa                	mv	a5,a0
    a00005f8:	fef407a3          	sb	a5,-17(s0)
    a00005fc:	0001                	nop
    a00005fe:	447007b7          	lui	a5,0x44700
    a0000602:	439c                	lw	a5,0(a5)
    a0000604:	0057d79b          	srliw	a5,a5,0x5
    a0000608:	8b85                	andi	a5,a5,1
    a000060a:	0ff7f793          	andi	a5,a5,255
    a000060e:	fbe5                	bnez	a5,a00005fe <Uart3_Tx+0xe>
    a0000610:	447007b7          	lui	a5,0x44700
    a0000614:	07c1                	addi	a5,a5,16
    a0000616:	fef44703          	lbu	a4,-17(s0)
    a000061a:	00e78023          	sb	a4,0(a5) # 44700000 <_ftext+0x44700000>
    a000061e:	0001                	nop
    a0000620:	6462                	ld	s0,24(sp)
    a0000622:	6105                	addi	sp,sp,32
    a0000624:	8082                	ret

00000000a0000626 <Uart3_Rx>:
int Uart3_Rx(void){if(UART3_RX_EMPTY) return -1; else return (int)(UART3_RX_DAT & 0xff);}
    a0000626:	1141                	addi	sp,sp,-16
    a0000628:	e422                	sd	s0,8(sp)
    a000062a:	0800                	addi	s0,sp,16
    a000062c:	447007b7          	lui	a5,0x44700
    a0000630:	439c                	lw	a5,0(a5)
    a0000632:	0017d79b          	srliw	a5,a5,0x1
    a0000636:	8b85                	andi	a5,a5,1
    a0000638:	0ff7f793          	andi	a5,a5,255
    a000063c:	c399                	beqz	a5,a0000642 <Uart3_Rx+0x1c>
    a000063e:	57fd                	li	a5,-1
    a0000640:	a809                	j	a0000652 <Uart3_Rx+0x2c>
    a0000642:	447007b7          	lui	a5,0x44700
    a0000646:	07a1                	addi	a5,a5,8
    a0000648:	0007c783          	lbu	a5,0(a5) # 44700000 <_ftext+0x44700000>
    a000064c:	0ff7f793          	andi	a5,a5,255
    a0000650:	2781                	sext.w	a5,a5
    a0000652:	853e                	mv	a0,a5
    a0000654:	6422                	ld	s0,8(sp)
    a0000656:	0141                	addi	sp,sp,16
    a0000658:	8082                	ret

00000000a000065a <Uart3_Irq>:
void Uart3_Irq(void){}
    a000065a:	1141                	addi	sp,sp,-16
    a000065c:	e422                	sd	s0,8(sp)
    a000065e:	0800                	addi	s0,sp,16
    a0000660:	0001                	nop
    a0000662:	6422                	ld	s0,8(sp)
    a0000664:	0141                	addi	sp,sp,16
    a0000666:	8082                	ret

00000000a0000668 <Uart4_Init>:

void Uart4_Init(unsigned int BaudRate){UART4_CLK_DIV = (MCK_FREQ/(BaudRate<<4))-1;}
    a0000668:	1101                	addi	sp,sp,-32
    a000066a:	ec22                	sd	s0,24(sp)
    a000066c:	1000                	addi	s0,sp,32
    a000066e:	87aa                	mv	a5,a0
    a0000670:	fef42623          	sw	a5,-20(s0)
    a0000674:	fec42783          	lw	a5,-20(s0)
    a0000678:	0047979b          	slliw	a5,a5,0x4
    a000067c:	2781                	sext.w	a5,a5
    a000067e:	02faf737          	lui	a4,0x2faf
    a0000682:	0807071b          	addiw	a4,a4,128
    a0000686:	02f757bb          	divuw	a5,a4,a5
    a000068a:	2781                	sext.w	a5,a5
    a000068c:	17c2                	slli	a5,a5,0x30
    a000068e:	93c1                	srli	a5,a5,0x30
    a0000690:	37fd                	addiw	a5,a5,-1
    a0000692:	03079713          	slli	a4,a5,0x30
    a0000696:	9341                	srli	a4,a4,0x30
    a0000698:	448007b7          	lui	a5,0x44800
    a000069c:	86ba                	mv	a3,a4
    a000069e:	6705                	lui	a4,0x1
    a00006a0:	177d                	addi	a4,a4,-1
    a00006a2:	8f75                	and	a4,a4,a3
    a00006a4:	1742                	slli	a4,a4,0x30
    a00006a6:	9341                	srli	a4,a4,0x30
    a00006a8:	0147171b          	slliw	a4,a4,0x14
    a00006ac:	4390                	lw	a2,0(a5)
    a00006ae:	001006b7          	lui	a3,0x100
    a00006b2:	16fd                	addi	a3,a3,-1
    a00006b4:	8ef1                	and	a3,a3,a2
    a00006b6:	8f55                	or	a4,a4,a3
    a00006b8:	c398                	sw	a4,0(a5)
    a00006ba:	0001                	nop
    a00006bc:	6462                	ld	s0,24(sp)
    a00006be:	6105                	addi	sp,sp,32
    a00006c0:	8082                	ret

00000000a00006c2 <Uart4_Tx>:
void Uart4_Tx(char data){while(UART4_TX_FULL);UART4_TX_DAT = data;}
    a00006c2:	1101                	addi	sp,sp,-32
    a00006c4:	ec22                	sd	s0,24(sp)
    a00006c6:	1000                	addi	s0,sp,32
    a00006c8:	87aa                	mv	a5,a0
    a00006ca:	fef407a3          	sb	a5,-17(s0)
    a00006ce:	0001                	nop
    a00006d0:	448007b7          	lui	a5,0x44800
    a00006d4:	439c                	lw	a5,0(a5)
    a00006d6:	0057d79b          	srliw	a5,a5,0x5
    a00006da:	8b85                	andi	a5,a5,1
    a00006dc:	0ff7f793          	andi	a5,a5,255
    a00006e0:	fbe5                	bnez	a5,a00006d0 <Uart4_Tx+0xe>
    a00006e2:	448007b7          	lui	a5,0x44800
    a00006e6:	07c1                	addi	a5,a5,16
    a00006e8:	fef44703          	lbu	a4,-17(s0)
    a00006ec:	00e78023          	sb	a4,0(a5) # 44800000 <_ftext+0x44800000>
    a00006f0:	0001                	nop
    a00006f2:	6462                	ld	s0,24(sp)
    a00006f4:	6105                	addi	sp,sp,32
    a00006f6:	8082                	ret

00000000a00006f8 <Uart4_Rx>:
int Uart4_Rx(void){if(UART4_RX_EMPTY) return -1; else return (int)(UART4_RX_DAT & 0xff);}
    a00006f8:	1141                	addi	sp,sp,-16
    a00006fa:	e422                	sd	s0,8(sp)
    a00006fc:	0800                	addi	s0,sp,16
    a00006fe:	448007b7          	lui	a5,0x44800
    a0000702:	439c                	lw	a5,0(a5)
    a0000704:	0017d79b          	srliw	a5,a5,0x1
    a0000708:	8b85                	andi	a5,a5,1
    a000070a:	0ff7f793          	andi	a5,a5,255
    a000070e:	c399                	beqz	a5,a0000714 <Uart4_Rx+0x1c>
    a0000710:	57fd                	li	a5,-1
    a0000712:	a809                	j	a0000724 <Uart4_Rx+0x2c>
    a0000714:	448007b7          	lui	a5,0x44800
    a0000718:	07a1                	addi	a5,a5,8
    a000071a:	0007c783          	lbu	a5,0(a5) # 44800000 <_ftext+0x44800000>
    a000071e:	0ff7f793          	andi	a5,a5,255
    a0000722:	2781                	sext.w	a5,a5
    a0000724:	853e                	mv	a0,a5
    a0000726:	6422                	ld	s0,8(sp)
    a0000728:	0141                	addi	sp,sp,16
    a000072a:	8082                	ret

00000000a000072c <Uart4_Irq>:
void Uart4_Irq(void){}
    a000072c:	1141                	addi	sp,sp,-16
    a000072e:	e422                	sd	s0,8(sp)
    a0000730:	0800                	addi	s0,sp,16
    a0000732:	0001                	nop
    a0000734:	6422                	ld	s0,8(sp)
    a0000736:	0141                	addi	sp,sp,16
    a0000738:	8082                	ret

00000000a000073a <Uart5_Init>:

void Uart5_Init(unsigned int BaudRate){UART5_CLK_DIV = (MCK_FREQ/(BaudRate<<4))-1;}
    a000073a:	1101                	addi	sp,sp,-32
    a000073c:	ec22                	sd	s0,24(sp)
    a000073e:	1000                	addi	s0,sp,32
    a0000740:	87aa                	mv	a5,a0
    a0000742:	fef42623          	sw	a5,-20(s0)
    a0000746:	fec42783          	lw	a5,-20(s0)
    a000074a:	0047979b          	slliw	a5,a5,0x4
    a000074e:	2781                	sext.w	a5,a5
    a0000750:	02faf737          	lui	a4,0x2faf
    a0000754:	0807071b          	addiw	a4,a4,128
    a0000758:	02f757bb          	divuw	a5,a4,a5
    a000075c:	2781                	sext.w	a5,a5
    a000075e:	17c2                	slli	a5,a5,0x30
    a0000760:	93c1                	srli	a5,a5,0x30
    a0000762:	37fd                	addiw	a5,a5,-1
    a0000764:	03079713          	slli	a4,a5,0x30
    a0000768:	9341                	srli	a4,a4,0x30
    a000076a:	449007b7          	lui	a5,0x44900
    a000076e:	86ba                	mv	a3,a4
    a0000770:	6705                	lui	a4,0x1
    a0000772:	177d                	addi	a4,a4,-1
    a0000774:	8f75                	and	a4,a4,a3
    a0000776:	1742                	slli	a4,a4,0x30
    a0000778:	9341                	srli	a4,a4,0x30
    a000077a:	0147171b          	slliw	a4,a4,0x14
    a000077e:	4390                	lw	a2,0(a5)
    a0000780:	001006b7          	lui	a3,0x100
    a0000784:	16fd                	addi	a3,a3,-1
    a0000786:	8ef1                	and	a3,a3,a2
    a0000788:	8f55                	or	a4,a4,a3
    a000078a:	c398                	sw	a4,0(a5)
    a000078c:	0001                	nop
    a000078e:	6462                	ld	s0,24(sp)
    a0000790:	6105                	addi	sp,sp,32
    a0000792:	8082                	ret

00000000a0000794 <Uart5_Tx>:
void Uart5_Tx(char data){while(UART5_TX_FULL);UART5_TX_DAT = data;}
    a0000794:	1101                	addi	sp,sp,-32
    a0000796:	ec22                	sd	s0,24(sp)
    a0000798:	1000                	addi	s0,sp,32
    a000079a:	87aa                	mv	a5,a0
    a000079c:	fef407a3          	sb	a5,-17(s0)
    a00007a0:	0001                	nop
    a00007a2:	449007b7          	lui	a5,0x44900
    a00007a6:	439c                	lw	a5,0(a5)
    a00007a8:	0057d79b          	srliw	a5,a5,0x5
    a00007ac:	8b85                	andi	a5,a5,1
    a00007ae:	0ff7f793          	andi	a5,a5,255
    a00007b2:	fbe5                	bnez	a5,a00007a2 <Uart5_Tx+0xe>
    a00007b4:	449007b7          	lui	a5,0x44900
    a00007b8:	07c1                	addi	a5,a5,16
    a00007ba:	fef44703          	lbu	a4,-17(s0)
    a00007be:	00e78023          	sb	a4,0(a5) # 44900000 <_ftext+0x44900000>
    a00007c2:	0001                	nop
    a00007c4:	6462                	ld	s0,24(sp)
    a00007c6:	6105                	addi	sp,sp,32
    a00007c8:	8082                	ret

00000000a00007ca <Uart5_Rx>:
int Uart5_Rx(void){if(UART5_RX_EMPTY) return -1; else return (int)(UART5_RX_DAT & 0xff);}
    a00007ca:	1141                	addi	sp,sp,-16
    a00007cc:	e422                	sd	s0,8(sp)
    a00007ce:	0800                	addi	s0,sp,16
    a00007d0:	449007b7          	lui	a5,0x44900
    a00007d4:	439c                	lw	a5,0(a5)
    a00007d6:	0017d79b          	srliw	a5,a5,0x1
    a00007da:	8b85                	andi	a5,a5,1
    a00007dc:	0ff7f793          	andi	a5,a5,255
    a00007e0:	c399                	beqz	a5,a00007e6 <Uart5_Rx+0x1c>
    a00007e2:	57fd                	li	a5,-1
    a00007e4:	a809                	j	a00007f6 <Uart5_Rx+0x2c>
    a00007e6:	449007b7          	lui	a5,0x44900
    a00007ea:	07a1                	addi	a5,a5,8
    a00007ec:	0007c783          	lbu	a5,0(a5) # 44900000 <_ftext+0x44900000>
    a00007f0:	0ff7f793          	andi	a5,a5,255
    a00007f4:	2781                	sext.w	a5,a5
    a00007f6:	853e                	mv	a0,a5
    a00007f8:	6422                	ld	s0,8(sp)
    a00007fa:	0141                	addi	sp,sp,16
    a00007fc:	8082                	ret

00000000a00007fe <Uart5_Irq>:
void Uart5_Irq(void){}
    a00007fe:	1141                	addi	sp,sp,-16
    a0000800:	e422                	sd	s0,8(sp)
    a0000802:	0800                	addi	s0,sp,16
    a0000804:	0001                	nop
    a0000806:	6422                	ld	s0,8(sp)
    a0000808:	0141                	addi	sp,sp,16
    a000080a:	8082                	ret

00000000a000080c <Uart6_Init>:

void Uart6_Init(unsigned int BaudRate){UART6_CLK_DIV = (MCK_FREQ/(BaudRate<<4))-1;}
    a000080c:	1101                	addi	sp,sp,-32
    a000080e:	ec22                	sd	s0,24(sp)
    a0000810:	1000                	addi	s0,sp,32
    a0000812:	87aa                	mv	a5,a0
    a0000814:	fef42623          	sw	a5,-20(s0)
    a0000818:	fec42783          	lw	a5,-20(s0)
    a000081c:	0047979b          	slliw	a5,a5,0x4
    a0000820:	2781                	sext.w	a5,a5
    a0000822:	02faf737          	lui	a4,0x2faf
    a0000826:	0807071b          	addiw	a4,a4,128
    a000082a:	02f757bb          	divuw	a5,a4,a5
    a000082e:	2781                	sext.w	a5,a5
    a0000830:	17c2                	slli	a5,a5,0x30
    a0000832:	93c1                	srli	a5,a5,0x30
    a0000834:	37fd                	addiw	a5,a5,-1
    a0000836:	03079713          	slli	a4,a5,0x30
    a000083a:	9341                	srli	a4,a4,0x30
    a000083c:	44a007b7          	lui	a5,0x44a00
    a0000840:	86ba                	mv	a3,a4
    a0000842:	6705                	lui	a4,0x1
    a0000844:	177d                	addi	a4,a4,-1
    a0000846:	8f75                	and	a4,a4,a3
    a0000848:	1742                	slli	a4,a4,0x30
    a000084a:	9341                	srli	a4,a4,0x30
    a000084c:	0147171b          	slliw	a4,a4,0x14
    a0000850:	4390                	lw	a2,0(a5)
    a0000852:	001006b7          	lui	a3,0x100
    a0000856:	16fd                	addi	a3,a3,-1
    a0000858:	8ef1                	and	a3,a3,a2
    a000085a:	8f55                	or	a4,a4,a3
    a000085c:	c398                	sw	a4,0(a5)
    a000085e:	0001                	nop
    a0000860:	6462                	ld	s0,24(sp)
    a0000862:	6105                	addi	sp,sp,32
    a0000864:	8082                	ret

00000000a0000866 <Uart6_Tx>:
void Uart6_Tx(char data){while(UART6_TX_FULL);UART6_TX_DAT = data;}
    a0000866:	1101                	addi	sp,sp,-32
    a0000868:	ec22                	sd	s0,24(sp)
    a000086a:	1000                	addi	s0,sp,32
    a000086c:	87aa                	mv	a5,a0
    a000086e:	fef407a3          	sb	a5,-17(s0)
    a0000872:	0001                	nop
    a0000874:	44a007b7          	lui	a5,0x44a00
    a0000878:	439c                	lw	a5,0(a5)
    a000087a:	0057d79b          	srliw	a5,a5,0x5
    a000087e:	8b85                	andi	a5,a5,1
    a0000880:	0ff7f793          	andi	a5,a5,255
    a0000884:	fbe5                	bnez	a5,a0000874 <Uart6_Tx+0xe>
    a0000886:	44a007b7          	lui	a5,0x44a00
    a000088a:	07c1                	addi	a5,a5,16
    a000088c:	fef44703          	lbu	a4,-17(s0)
    a0000890:	00e78023          	sb	a4,0(a5) # 44a00000 <_ftext+0x44a00000>
    a0000894:	0001                	nop
    a0000896:	6462                	ld	s0,24(sp)
    a0000898:	6105                	addi	sp,sp,32
    a000089a:	8082                	ret

00000000a000089c <Uart6_Rx>:
int Uart6_Rx(void){if(UART6_RX_EMPTY) return -1; else return (int)(UART6_RX_DAT & 0xff);}
    a000089c:	1141                	addi	sp,sp,-16
    a000089e:	e422                	sd	s0,8(sp)
    a00008a0:	0800                	addi	s0,sp,16
    a00008a2:	44a007b7          	lui	a5,0x44a00
    a00008a6:	439c                	lw	a5,0(a5)
    a00008a8:	0017d79b          	srliw	a5,a5,0x1
    a00008ac:	8b85                	andi	a5,a5,1
    a00008ae:	0ff7f793          	andi	a5,a5,255
    a00008b2:	c399                	beqz	a5,a00008b8 <Uart6_Rx+0x1c>
    a00008b4:	57fd                	li	a5,-1
    a00008b6:	a809                	j	a00008c8 <Uart6_Rx+0x2c>
    a00008b8:	44a007b7          	lui	a5,0x44a00
    a00008bc:	07a1                	addi	a5,a5,8
    a00008be:	0007c783          	lbu	a5,0(a5) # 44a00000 <_ftext+0x44a00000>
    a00008c2:	0ff7f793          	andi	a5,a5,255
    a00008c6:	2781                	sext.w	a5,a5
    a00008c8:	853e                	mv	a0,a5
    a00008ca:	6422                	ld	s0,8(sp)
    a00008cc:	0141                	addi	sp,sp,16
    a00008ce:	8082                	ret

00000000a00008d0 <Uart6_Irq>:
void Uart6_Irq(void){}
    a00008d0:	1141                	addi	sp,sp,-16
    a00008d2:	e422                	sd	s0,8(sp)
    a00008d4:	0800                	addi	s0,sp,16
    a00008d6:	0001                	nop
    a00008d8:	6422                	ld	s0,8(sp)
    a00008da:	0141                	addi	sp,sp,16
    a00008dc:	8082                	ret

00000000a00008de <Uart7_Init>:

void Uart7_Init(unsigned int BaudRate)
{
    a00008de:	1101                	addi	sp,sp,-32
    a00008e0:	ec22                	sd	s0,24(sp)
    a00008e2:	1000                	addi	s0,sp,32
    a00008e4:	87aa                	mv	a5,a0
    a00008e6:	fef42623          	sw	a5,-20(s0)
	SYS_GPIO56_MUX = 3;	//	UART7
    a00008ea:	450017b7          	lui	a5,0x45001
    a00008ee:	9c078793          	addi	a5,a5,-1600 # 450009c0 <_ftext+0x450009c0>
    a00008f2:	4398                	lw	a4,0(a5)
    a00008f4:	00376713          	ori	a4,a4,3
    a00008f8:	c398                	sw	a4,0(a5)
	SYS_GPIO57_MUX = 3;	//	UART7
    a00008fa:	450017b7          	lui	a5,0x45001
    a00008fe:	9c878793          	addi	a5,a5,-1592 # 450009c8 <_ftext+0x450009c8>
    a0000902:	4398                	lw	a4,0(a5)
    a0000904:	00376713          	ori	a4,a4,3
    a0000908:	c398                	sw	a4,0(a5)
	UART7_CLK_DIV = (MCK_FREQ/(BaudRate<<4))-1;
    a000090a:	fec42783          	lw	a5,-20(s0)
    a000090e:	0047979b          	slliw	a5,a5,0x4
    a0000912:	2781                	sext.w	a5,a5
    a0000914:	02faf737          	lui	a4,0x2faf
    a0000918:	0807071b          	addiw	a4,a4,128
    a000091c:	02f757bb          	divuw	a5,a4,a5
    a0000920:	2781                	sext.w	a5,a5
    a0000922:	17c2                	slli	a5,a5,0x30
    a0000924:	93c1                	srli	a5,a5,0x30
    a0000926:	37fd                	addiw	a5,a5,-1
    a0000928:	03079713          	slli	a4,a5,0x30
    a000092c:	9341                	srli	a4,a4,0x30
    a000092e:	44b007b7          	lui	a5,0x44b00
    a0000932:	86ba                	mv	a3,a4
    a0000934:	6705                	lui	a4,0x1
    a0000936:	177d                	addi	a4,a4,-1
    a0000938:	8f75                	and	a4,a4,a3
    a000093a:	1742                	slli	a4,a4,0x30
    a000093c:	9341                	srli	a4,a4,0x30
    a000093e:	0147171b          	slliw	a4,a4,0x14
    a0000942:	4390                	lw	a2,0(a5)
    a0000944:	001006b7          	lui	a3,0x100
    a0000948:	16fd                	addi	a3,a3,-1
    a000094a:	8ef1                	and	a3,a3,a2
    a000094c:	8f55                	or	a4,a4,a3
    a000094e:	c398                	sw	a4,0(a5)
}
    a0000950:	0001                	nop
    a0000952:	6462                	ld	s0,24(sp)
    a0000954:	6105                	addi	sp,sp,32
    a0000956:	8082                	ret

00000000a0000958 <Uart7_Tx>:
void Uart7_Tx(char data){while(UART7_TX_FULL);UART7_TX_DAT = data;}
    a0000958:	1101                	addi	sp,sp,-32
    a000095a:	ec22                	sd	s0,24(sp)
    a000095c:	1000                	addi	s0,sp,32
    a000095e:	87aa                	mv	a5,a0
    a0000960:	fef407a3          	sb	a5,-17(s0)
    a0000964:	0001                	nop
    a0000966:	44b007b7          	lui	a5,0x44b00
    a000096a:	439c                	lw	a5,0(a5)
    a000096c:	0057d79b          	srliw	a5,a5,0x5
    a0000970:	8b85                	andi	a5,a5,1
    a0000972:	0ff7f793          	andi	a5,a5,255
    a0000976:	fbe5                	bnez	a5,a0000966 <Uart7_Tx+0xe>
    a0000978:	44b007b7          	lui	a5,0x44b00
    a000097c:	07c1                	addi	a5,a5,16
    a000097e:	fef44703          	lbu	a4,-17(s0)
    a0000982:	00e78023          	sb	a4,0(a5) # 44b00000 <_ftext+0x44b00000>
    a0000986:	0001                	nop
    a0000988:	6462                	ld	s0,24(sp)
    a000098a:	6105                	addi	sp,sp,32
    a000098c:	8082                	ret

00000000a000098e <Uart7_Rx>:
int Uart7_Rx(void){if(UART7_RX_EMPTY) return -1; else return (int)(UART7_RX_DAT & 0xff);}
    a000098e:	1141                	addi	sp,sp,-16
    a0000990:	e422                	sd	s0,8(sp)
    a0000992:	0800                	addi	s0,sp,16
    a0000994:	44b007b7          	lui	a5,0x44b00
    a0000998:	439c                	lw	a5,0(a5)
    a000099a:	0017d79b          	srliw	a5,a5,0x1
    a000099e:	8b85                	andi	a5,a5,1
    a00009a0:	0ff7f793          	andi	a5,a5,255
    a00009a4:	c399                	beqz	a5,a00009aa <Uart7_Rx+0x1c>
    a00009a6:	57fd                	li	a5,-1
    a00009a8:	a809                	j	a00009ba <Uart7_Rx+0x2c>
    a00009aa:	44b007b7          	lui	a5,0x44b00
    a00009ae:	07a1                	addi	a5,a5,8
    a00009b0:	0007c783          	lbu	a5,0(a5) # 44b00000 <_ftext+0x44b00000>
    a00009b4:	0ff7f793          	andi	a5,a5,255
    a00009b8:	2781                	sext.w	a5,a5
    a00009ba:	853e                	mv	a0,a5
    a00009bc:	6422                	ld	s0,8(sp)
    a00009be:	0141                	addi	sp,sp,16
    a00009c0:	8082                	ret

00000000a00009c2 <Uart7_Irq>:
void Uart7_Irq(void){}
    a00009c2:	1141                	addi	sp,sp,-16
    a00009c4:	e422                	sd	s0,8(sp)
    a00009c6:	0800                	addi	s0,sp,16
    a00009c8:	0001                	nop
    a00009ca:	6422                	ld	s0,8(sp)
    a00009cc:	0141                	addi	sp,sp,16
    a00009ce:	8082                	ret

00000000a00009d0 <Uart8_Init>:

void Uart8_Init(unsigned int BaudRate){UART8_CLK_DIV = (MCK_FREQ/(BaudRate<<4))-1;}
    a00009d0:	1101                	addi	sp,sp,-32
    a00009d2:	ec22                	sd	s0,24(sp)
    a00009d4:	1000                	addi	s0,sp,32
    a00009d6:	87aa                	mv	a5,a0
    a00009d8:	fef42623          	sw	a5,-20(s0)
    a00009dc:	fec42783          	lw	a5,-20(s0)
    a00009e0:	0047979b          	slliw	a5,a5,0x4
    a00009e4:	2781                	sext.w	a5,a5
    a00009e6:	02faf737          	lui	a4,0x2faf
    a00009ea:	0807071b          	addiw	a4,a4,128
    a00009ee:	02f757bb          	divuw	a5,a4,a5
    a00009f2:	2781                	sext.w	a5,a5
    a00009f4:	17c2                	slli	a5,a5,0x30
    a00009f6:	93c1                	srli	a5,a5,0x30
    a00009f8:	37fd                	addiw	a5,a5,-1
    a00009fa:	03079713          	slli	a4,a5,0x30
    a00009fe:	9341                	srli	a4,a4,0x30
    a0000a00:	44c007b7          	lui	a5,0x44c00
    a0000a04:	86ba                	mv	a3,a4
    a0000a06:	6705                	lui	a4,0x1
    a0000a08:	177d                	addi	a4,a4,-1
    a0000a0a:	8f75                	and	a4,a4,a3
    a0000a0c:	1742                	slli	a4,a4,0x30
    a0000a0e:	9341                	srli	a4,a4,0x30
    a0000a10:	0147171b          	slliw	a4,a4,0x14
    a0000a14:	4390                	lw	a2,0(a5)
    a0000a16:	001006b7          	lui	a3,0x100
    a0000a1a:	16fd                	addi	a3,a3,-1
    a0000a1c:	8ef1                	and	a3,a3,a2
    a0000a1e:	8f55                	or	a4,a4,a3
    a0000a20:	c398                	sw	a4,0(a5)
    a0000a22:	0001                	nop
    a0000a24:	6462                	ld	s0,24(sp)
    a0000a26:	6105                	addi	sp,sp,32
    a0000a28:	8082                	ret

00000000a0000a2a <Uart8_Tx>:
void Uart8_Tx(char data){while(UART8_TX_FULL);UART8_TX_DAT = data;}
    a0000a2a:	1101                	addi	sp,sp,-32
    a0000a2c:	ec22                	sd	s0,24(sp)
    a0000a2e:	1000                	addi	s0,sp,32
    a0000a30:	87aa                	mv	a5,a0
    a0000a32:	fef407a3          	sb	a5,-17(s0)
    a0000a36:	0001                	nop
    a0000a38:	44c007b7          	lui	a5,0x44c00
    a0000a3c:	439c                	lw	a5,0(a5)
    a0000a3e:	0057d79b          	srliw	a5,a5,0x5
    a0000a42:	8b85                	andi	a5,a5,1
    a0000a44:	0ff7f793          	andi	a5,a5,255
    a0000a48:	fbe5                	bnez	a5,a0000a38 <Uart8_Tx+0xe>
    a0000a4a:	44c007b7          	lui	a5,0x44c00
    a0000a4e:	07c1                	addi	a5,a5,16
    a0000a50:	fef44703          	lbu	a4,-17(s0)
    a0000a54:	00e78023          	sb	a4,0(a5) # 44c00000 <_ftext+0x44c00000>
    a0000a58:	0001                	nop
    a0000a5a:	6462                	ld	s0,24(sp)
    a0000a5c:	6105                	addi	sp,sp,32
    a0000a5e:	8082                	ret

00000000a0000a60 <Uart8_Rx>:
int Uart8_Rx(void){if(UART8_RX_EMPTY) return -1; else return (int)(UART8_RX_DAT & 0xff);}
    a0000a60:	1141                	addi	sp,sp,-16
    a0000a62:	e422                	sd	s0,8(sp)
    a0000a64:	0800                	addi	s0,sp,16
    a0000a66:	44c007b7          	lui	a5,0x44c00
    a0000a6a:	439c                	lw	a5,0(a5)
    a0000a6c:	0017d79b          	srliw	a5,a5,0x1
    a0000a70:	8b85                	andi	a5,a5,1
    a0000a72:	0ff7f793          	andi	a5,a5,255
    a0000a76:	c399                	beqz	a5,a0000a7c <Uart8_Rx+0x1c>
    a0000a78:	57fd                	li	a5,-1
    a0000a7a:	a809                	j	a0000a8c <Uart8_Rx+0x2c>
    a0000a7c:	44c007b7          	lui	a5,0x44c00
    a0000a80:	07a1                	addi	a5,a5,8
    a0000a82:	0007c783          	lbu	a5,0(a5) # 44c00000 <_ftext+0x44c00000>
    a0000a86:	0ff7f793          	andi	a5,a5,255
    a0000a8a:	2781                	sext.w	a5,a5
    a0000a8c:	853e                	mv	a0,a5
    a0000a8e:	6422                	ld	s0,8(sp)
    a0000a90:	0141                	addi	sp,sp,16
    a0000a92:	8082                	ret

00000000a0000a94 <Uart8_Irq>:
void Uart8_Irq(void){}
    a0000a94:	1141                	addi	sp,sp,-16
    a0000a96:	e422                	sd	s0,8(sp)
    a0000a98:	0800                	addi	s0,sp,16
    a0000a9a:	0001                	nop
    a0000a9c:	6422                	ld	s0,8(sp)
    a0000a9e:	0141                	addi	sp,sp,16
    a0000aa0:	8082                	ret

00000000a0000aa2 <sleep_>:
#define SLEEP_CNT 100000

#define BASE_ADDR 0x80003000

void sleep_(int cnt)
{
    a0000aa2:	7179                	addi	sp,sp,-48
    a0000aa4:	f422                	sd	s0,40(sp)
    a0000aa6:	1800                	addi	s0,sp,48
    a0000aa8:	87aa                	mv	a5,a0
    a0000aaa:	fcf42e23          	sw	a5,-36(s0)

	for(int i=0;i<cnt;i++){
    a0000aae:	fe042623          	sw	zero,-20(s0)
    a0000ab2:	a039                	j	a0000ac0 <sleep_+0x1e>
		__asm("C.NOP");
    a0000ab4:	0001                	nop
	for(int i=0;i<cnt;i++){
    a0000ab6:	fec42783          	lw	a5,-20(s0)
    a0000aba:	2785                	addiw	a5,a5,1
    a0000abc:	fef42623          	sw	a5,-20(s0)
    a0000ac0:	fec42703          	lw	a4,-20(s0)
    a0000ac4:	fdc42783          	lw	a5,-36(s0)
    a0000ac8:	2701                	sext.w	a4,a4
    a0000aca:	2781                	sext.w	a5,a5
    a0000acc:	fef744e3          	blt	a4,a5,a0000ab4 <sleep_+0x12>
	}

}
    a0000ad0:	0001                	nop
    a0000ad2:	7422                	ld	s0,40(sp)
    a0000ad4:	6145                	addi	sp,sp,48
    a0000ad6:	8082                	ret

00000000a0000ad8 <sleep_s>:
void sleep_s(void){
    a0000ad8:	1141                	addi	sp,sp,-16
    a0000ada:	e422                	sd	s0,8(sp)
    a0000adc:	0800                	addi	s0,sp,16
	__asm("C.NOP");
    a0000ade:	0001                	nop
}
    a0000ae0:	0001                	nop
    a0000ae2:	6422                	ld	s0,8(sp)
    a0000ae4:	0141                	addi	sp,sp,16
    a0000ae6:	8082                	ret

00000000a0000ae8 <main_>:

void main_(void)
{
    a0000ae8:	1141                	addi	sp,sp,-16
    a0000aea:	e406                	sd	ra,8(sp)
    a0000aec:	e022                	sd	s0,0(sp)
    a0000aee:	0800                	addi	s0,sp,16
  _printf("exception\n");
    a0000af0:	00004517          	auipc	a0,0x4
    a0000af4:	19050513          	addi	a0,a0,400 # a0004c80 <__text_e>
    a0000af8:	622030ef          	jal	ra,a000411a <_printf>
  while(1);
    a0000afc:	a001                	j	a0000afc <main_+0x14>

00000000a0000afe <main_0>:
#define CLINT_BASE         0x02000000
volatile uint64_t* mtime =      (uint64_t*)(CLINT_BASE + 0xbff8);


void main_0(void)
{
    a0000afe:	715d                	addi	sp,sp,-80
    a0000b00:	e486                	sd	ra,72(sp)
    a0000b02:	e0a2                	sd	s0,64(sp)
    a0000b04:	0880                	addi	s0,sp,80

//	chksum16(RAM_BASE+0x10000, 0x10);

//	sha224(RAM_BASE+0x10000, 0x10);
//	sha256(RAM_BASE+0x10000, 0x10);
	Uart7_Init(115200);
    a0000b06:	67f1                	lui	a5,0x1c
    a0000b08:	20078513          	addi	a0,a5,512 # 1c200 <_ftext+0x1c200>
    a0000b0c:	dd3ff0ef          	jal	ra,a00008de <Uart7_Init>



//	test_calib();

	DdrInit(2);
    a0000b10:	4509                	li	a0,2
    a0000b12:	448010ef          	jal	ra,a0001f5a <DdrInit>
	

#define EMPT_SRAM 0x80010388
#define DST_SRAM  0x81000388
#define SIZEOFCACHE 1225
	volatile uint* psrc = EMPT_SRAM;
    a0000b16:	080017b7          	lui	a5,0x8001
    a0000b1a:	0792                	slli	a5,a5,0x4
    a0000b1c:	38878793          	addi	a5,a5,904 # 8001388 <_ftext+0x8001388>
    a0000b20:	fef43423          	sd	a5,-24(s0)
	volatile uint* pdst = DST_SRAM;
    a0000b24:	08100793          	li	a5,129
    a0000b28:	07e2                	slli	a5,a5,0x18
    a0000b2a:	38878793          	addi	a5,a5,904
    a0000b2e:	fcf43023          	sd	a5,-64(s0)
	uint* src = psrc;
    a0000b32:	fe843783          	ld	a5,-24(s0)
    a0000b36:	fef43023          	sd	a5,-32(s0)
	uint* dst = pdst;
    a0000b3a:	fc043783          	ld	a5,-64(s0)
    a0000b3e:	fcf43c23          	sd	a5,-40(s0)
	uint size = SIZEOFCACHE;
    a0000b42:	4c900793          	li	a5,1225
    a0000b46:	fcf42a23          	sw	a5,-44(s0)
uint i=0;
    a0000b4a:	fc042823          	sw	zero,-48(s0)
uint ret;
uint r=0;
    a0000b4e:	fc042623          	sw	zero,-52(s0)

#if 1
for(r=0;r<10000;r++){
    a0000b52:	fc042623          	sw	zero,-52(s0)
    a0000b56:	aa49                	j	a0000ce8 <main_0+0x1ea>

	src = psrc;
    a0000b58:	fe843783          	ld	a5,-24(s0)
    a0000b5c:	fef43023          	sd	a5,-32(s0)
	dst = pdst;
    a0000b60:	fc043783          	ld	a5,-64(s0)
    a0000b64:	fcf43c23          	sd	a5,-40(s0)

	_printf("############[Round:%d](src:%08x)(dst:%08x)(size:%d)###########\r\n",r,src,dst ,size);
    a0000b68:	fd442703          	lw	a4,-44(s0)
    a0000b6c:	fcc42783          	lw	a5,-52(s0)
    a0000b70:	fd843683          	ld	a3,-40(s0)
    a0000b74:	fe043603          	ld	a2,-32(s0)
    a0000b78:	85be                	mv	a1,a5
    a0000b7a:	00004517          	auipc	a0,0x4
    a0000b7e:	11650513          	addi	a0,a0,278 # a0004c90 <__text_e+0x10>
    a0000b82:	598030ef          	jal	ra,a000411a <_printf>

	for(i=0;i<size/4;i++){
    a0000b86:	fc042823          	sw	zero,-48(s0)
    a0000b8a:	a025                	j	a0000bb2 <main_0+0xb4>
		dmwrite32(src++, i);DdrOffOn();
    a0000b8c:	fe043783          	ld	a5,-32(s0)
    a0000b90:	00478713          	addi	a4,a5,4
    a0000b94:	fee43023          	sd	a4,-32(s0)
    a0000b98:	fd042703          	lw	a4,-48(s0)
    a0000b9c:	85ba                	mv	a1,a4
    a0000b9e:	853e                	mv	a0,a5
    a0000ba0:	718030ef          	jal	ra,a00042b8 <dmwrite32>
    a0000ba4:	39c010ef          	jal	ra,a0001f40 <DdrOffOn>
	for(i=0;i<size/4;i++){
    a0000ba8:	fd042783          	lw	a5,-48(s0)
    a0000bac:	2785                	addiw	a5,a5,1
    a0000bae:	fcf42823          	sw	a5,-48(s0)
    a0000bb2:	fd442783          	lw	a5,-44(s0)
    a0000bb6:	0027d79b          	srliw	a5,a5,0x2
    a0000bba:	0007871b          	sext.w	a4,a5
    a0000bbe:	fd042783          	lw	a5,-48(s0)
    a0000bc2:	2781                	sext.w	a5,a5
    a0000bc4:	fce7e4e3          	bltu	a5,a4,a0000b8c <main_0+0x8e>
	}
	src = psrc;
    a0000bc8:	fe843783          	ld	a5,-24(s0)
    a0000bcc:	fef43023          	sd	a5,-32(s0)
	for(i=0;i<size/4;i++){
    a0000bd0:	fc042823          	sw	zero,-48(s0)
    a0000bd4:	a0a9                	j	a0000c1e <main_0+0x120>
			if((ret=dmread32(src)) != i){
    a0000bd6:	fe043503          	ld	a0,-32(s0)
    a0000bda:	7ce030ef          	jal	ra,a00043a8 <dmread32>
    a0000bde:	87aa                	mv	a5,a0
    a0000be0:	faf42e23          	sw	a5,-68(s0)
    a0000be4:	fbc42703          	lw	a4,-68(s0)
    a0000be8:	fd042783          	lw	a5,-48(s0)
    a0000bec:	2701                	sext.w	a4,a4
    a0000bee:	2781                	sext.w	a5,a5
    a0000bf0:	00f70d63          	beq	a4,a5,a0000c0a <main_0+0x10c>
				_printf("[%d](%x)\r\n",i,psrc);
    a0000bf4:	fd042783          	lw	a5,-48(s0)
    a0000bf8:	fe843603          	ld	a2,-24(s0)
    a0000bfc:	85be                	mv	a1,a5
    a0000bfe:	00004517          	auipc	a0,0x4
    a0000c02:	0da50513          	addi	a0,a0,218 # a0004cd8 <__text_e+0x58>
    a0000c06:	514030ef          	jal	ra,a000411a <_printf>
			}
			src++;
    a0000c0a:	fe043783          	ld	a5,-32(s0)
    a0000c0e:	0791                	addi	a5,a5,4
    a0000c10:	fef43023          	sd	a5,-32(s0)
	for(i=0;i<size/4;i++){
    a0000c14:	fd042783          	lw	a5,-48(s0)
    a0000c18:	2785                	addiw	a5,a5,1
    a0000c1a:	fcf42823          	sw	a5,-48(s0)
    a0000c1e:	fd442783          	lw	a5,-44(s0)
    a0000c22:	0027d79b          	srliw	a5,a5,0x2
    a0000c26:	0007871b          	sext.w	a4,a5
    a0000c2a:	fd042783          	lw	a5,-48(s0)
    a0000c2e:	2781                	sext.w	a5,a5
    a0000c30:	fae7e3e3          	bltu	a5,a4,a0000bd6 <main_0+0xd8>
	}

	cdma_copy(dst,psrc,size);
    a0000c34:	fd442783          	lw	a5,-44(s0)
    a0000c38:	863e                	mv	a2,a5
    a0000c3a:	fe843583          	ld	a1,-24(s0)
    a0000c3e:	fd843503          	ld	a0,-40(s0)
    a0000c42:	320020ef          	jal	ra,a0002f62 <cdma_copy>

	for(i=0;i<size/4;i++){
    a0000c46:	fc042823          	sw	zero,-48(s0)
    a0000c4a:	a891                	j	a0000c9e <main_0+0x1a0>
			if((ret=dmread32(dst)) != i){
    a0000c4c:	fd843503          	ld	a0,-40(s0)
    a0000c50:	758030ef          	jal	ra,a00043a8 <dmread32>
    a0000c54:	87aa                	mv	a5,a0
    a0000c56:	faf42e23          	sw	a5,-68(s0)
    a0000c5a:	fbc42703          	lw	a4,-68(s0)
    a0000c5e:	fd042783          	lw	a5,-48(s0)
    a0000c62:	2701                	sext.w	a4,a4
    a0000c64:	2781                	sext.w	a5,a5
    a0000c66:	02f70263          	beq	a4,a5,a0000c8a <main_0+0x18c>
				_printf("[%d](src:%08x)(dmadst:%08x)(Daddr:%08x)(Data:%08x)\r\n",i,psrc,pdst,dst,ret);
    a0000c6a:	fbc42783          	lw	a5,-68(s0)
    a0000c6e:	fd042583          	lw	a1,-48(s0)
    a0000c72:	fd843703          	ld	a4,-40(s0)
    a0000c76:	fc043683          	ld	a3,-64(s0)
    a0000c7a:	fe843603          	ld	a2,-24(s0)
    a0000c7e:	00004517          	auipc	a0,0x4
    a0000c82:	06a50513          	addi	a0,a0,106 # a0004ce8 <__text_e+0x68>
    a0000c86:	494030ef          	jal	ra,a000411a <_printf>
			}
		dst++;
    a0000c8a:	fd843783          	ld	a5,-40(s0)
    a0000c8e:	0791                	addi	a5,a5,4
    a0000c90:	fcf43c23          	sd	a5,-40(s0)
	for(i=0;i<size/4;i++){
    a0000c94:	fd042783          	lw	a5,-48(s0)
    a0000c98:	2785                	addiw	a5,a5,1
    a0000c9a:	fcf42823          	sw	a5,-48(s0)
    a0000c9e:	fd442783          	lw	a5,-44(s0)
    a0000ca2:	0027d79b          	srliw	a5,a5,0x2
    a0000ca6:	0007871b          	sext.w	a4,a5
    a0000caa:	fd042783          	lw	a5,-48(s0)
    a0000cae:	2781                	sext.w	a5,a5
    a0000cb0:	f8e7eee3          	bltu	a5,a4,a0000c4c <main_0+0x14e>
	}

	size +=1 ;
    a0000cb4:	fd442783          	lw	a5,-44(s0)
    a0000cb8:	2785                	addiw	a5,a5,1
    a0000cba:	fcf42a23          	sw	a5,-44(s0)
//	psrc +=1 ;
//	pdst +=1 ;
	if(psrc > EMPT_SRAM + 0x1000) psrc = EMPT_SRAM;
    a0000cbe:	fe843703          	ld	a4,-24(s0)
    a0000cc2:	100027b7          	lui	a5,0x10002
    a0000cc6:	27178793          	addi	a5,a5,625 # 10002271 <_ftext+0x10002271>
    a0000cca:	078e                	slli	a5,a5,0x3
    a0000ccc:	00e7f963          	bleu	a4,a5,a0000cde <main_0+0x1e0>
    a0000cd0:	080017b7          	lui	a5,0x8001
    a0000cd4:	0792                	slli	a5,a5,0x4
    a0000cd6:	38878793          	addi	a5,a5,904 # 8001388 <_ftext+0x8001388>
    a0000cda:	fef43423          	sd	a5,-24(s0)
for(r=0;r<10000;r++){
    a0000cde:	fcc42783          	lw	a5,-52(s0)
    a0000ce2:	2785                	addiw	a5,a5,1
    a0000ce4:	fcf42623          	sw	a5,-52(s0)
    a0000ce8:	fcc42783          	lw	a5,-52(s0)
    a0000cec:	0007871b          	sext.w	a4,a5
    a0000cf0:	6789                	lui	a5,0x2
    a0000cf2:	70f78793          	addi	a5,a5,1807 # 270f <_ftext+0x270f>
    a0000cf6:	e6e7f1e3          	bleu	a4,a5,a0000b58 <main_0+0x5a>
		 _printf("idx[%d]round %d size %d time %16lu\r\n",idx,round,size,*mtime);
	 }
#endif

	 while(1){
		 Comm();
    a0000cfa:	3a7030ef          	jal	ra,a00048a0 <Comm>
		 sleep_(100000);
    a0000cfe:	67e1                	lui	a5,0x18
    a0000d00:	6a078513          	addi	a0,a5,1696 # 186a0 <_ftext+0x186a0>
    a0000d04:	d9fff0ef          	jal	ra,a0000aa2 <sleep_>
		 _printf("%16lu\n",*mtime);
    a0000d08:	00004797          	auipc	a5,0x4
    a0000d0c:	4d878793          	addi	a5,a5,1240 # a00051e0 <mtime>
    a0000d10:	639c                	ld	a5,0(a5)
    a0000d12:	639c                	ld	a5,0(a5)
    a0000d14:	85be                	mv	a1,a5
    a0000d16:	00004517          	auipc	a0,0x4
    a0000d1a:	00a50513          	addi	a0,a0,10 # a0004d20 <__text_e+0xa0>
    a0000d1e:	3fc030ef          	jal	ra,a000411a <_printf>
		 Comm();
    a0000d22:	bfe1                	j	a0000cfa <main_0+0x1fc>

00000000a0000d24 <main_1>:
//

}

void main_1(void)
{
    a0000d24:	1101                	addi	sp,sp,-32
    a0000d26:	ec06                	sd	ra,24(sp)
    a0000d28:	e822                	sd	s0,16(sp)
    a0000d2a:	1000                	addi	s0,sp,32
	//	while(1);
//	while((SYS_CPU_EN & 0x2)!=0x2){
//		sleep_(1);
//	}
//	Uart1_Strn("CPU1");
	 volatile int a,b,c=0;
    a0000d2c:	fe042223          	sw	zero,-28(s0)
	 while(1){
		 _printf("b");
    a0000d30:	00004517          	auipc	a0,0x4
    a0000d34:	ff850513          	addi	a0,a0,-8 # a0004d28 <__text_e+0xa8>
    a0000d38:	3e2030ef          	jal	ra,a000411a <_printf>
	//	 sleep_(1);
		 a =  SYS_CPU_EN;
    a0000d3c:	450007b7          	lui	a5,0x45000
    a0000d40:	439c                	lw	a5,0(a5)
    a0000d42:	8bbd                	andi	a5,a5,15
    a0000d44:	0ff7f793          	andi	a5,a5,255
    a0000d48:	2781                	sext.w	a5,a5
    a0000d4a:	fef42623          	sw	a5,-20(s0)
		 SYS_CPU_EN = c;
    a0000d4e:	fe442783          	lw	a5,-28(s0)
    a0000d52:	0007871b          	sext.w	a4,a5
    a0000d56:	450007b7          	lui	a5,0x45000
    a0000d5a:	8b3d                	andi	a4,a4,15
    a0000d5c:	0ff77713          	andi	a4,a4,255
    a0000d60:	00f77613          	andi	a2,a4,15
    a0000d64:	4398                	lw	a4,0(a5)
    a0000d66:	9b41                	andi	a4,a4,-16
    a0000d68:	86ba                	mv	a3,a4
    a0000d6a:	8732                	mv	a4,a2
    a0000d6c:	8f55                	or	a4,a4,a3
    a0000d6e:	c398                	sw	a4,0(a5)
		 _printf("b");
    a0000d70:	b7c1                	j	a0000d30 <main_1+0xc>

00000000a0000d72 <main_2>:
	 }
}

void main_2(void)
{
    a0000d72:	1101                	addi	sp,sp,-32
    a0000d74:	ec06                	sd	ra,24(sp)
    a0000d76:	e822                	sd	s0,16(sp)
    a0000d78:	1000                	addi	s0,sp,32
//	while(1);
//	while((SYS_CPU_EN & 0x4)!=0x4){
//		sleep_(1);
//	}
//	Uart1_Strn("CPU2");
	 volatile int a,b,c=0;
    a0000d7a:	fe042223          	sw	zero,-28(s0)
	 while(1){
		 _printf("c");
    a0000d7e:	00004517          	auipc	a0,0x4
    a0000d82:	fb250513          	addi	a0,a0,-78 # a0004d30 <__text_e+0xb0>
    a0000d86:	394030ef          	jal	ra,a000411a <_printf>
	//	 sleep_(1);
		 a =  SYS_CPU_EN;
    a0000d8a:	450007b7          	lui	a5,0x45000
    a0000d8e:	439c                	lw	a5,0(a5)
    a0000d90:	8bbd                	andi	a5,a5,15
    a0000d92:	0ff7f793          	andi	a5,a5,255
    a0000d96:	2781                	sext.w	a5,a5
    a0000d98:	fef42623          	sw	a5,-20(s0)

	//	 UART7_TX_DAT = c;
		 SYS_CPU_EN = c;
    a0000d9c:	fe442783          	lw	a5,-28(s0)
    a0000da0:	0007871b          	sext.w	a4,a5
    a0000da4:	450007b7          	lui	a5,0x45000
    a0000da8:	8b3d                	andi	a4,a4,15
    a0000daa:	0ff77713          	andi	a4,a4,255
    a0000dae:	00f77613          	andi	a2,a4,15
    a0000db2:	4398                	lw	a4,0(a5)
    a0000db4:	9b41                	andi	a4,a4,-16
    a0000db6:	86ba                	mv	a3,a4
    a0000db8:	8732                	mv	a4,a2
    a0000dba:	8f55                	or	a4,a4,a3
    a0000dbc:	c398                	sw	a4,0(a5)
		 _printf("c");
    a0000dbe:	b7c1                	j	a0000d7e <main_2+0xc>

00000000a0000dc0 <main_3>:

	 }
}

void main_3(void)
{
    a0000dc0:	1101                	addi	sp,sp,-32
    a0000dc2:	ec06                	sd	ra,24(sp)
    a0000dc4:	e822                	sd	s0,16(sp)
    a0000dc6:	1000                	addi	s0,sp,32
//	while(1);
//	while((SYS_CPU_EN & 0x8)!=0x8){
//		sleep_(1);
//	}
//	Uart1_Strn("CPU3");
 volatile int a,b,c=0;
    a0000dc8:	fe042223          	sw	zero,-28(s0)
	 while(1){
		 _printf("d");
    a0000dcc:	00004517          	auipc	a0,0x4
    a0000dd0:	f6c50513          	addi	a0,a0,-148 # a0004d38 <__text_e+0xb8>
    a0000dd4:	346030ef          	jal	ra,a000411a <_printf>
		 //sleep_(1);
		 //__asm("C.NOP");

//

		 a =  SYS_CPU_EN;
    a0000dd8:	450007b7          	lui	a5,0x45000
    a0000ddc:	439c                	lw	a5,0(a5)
    a0000dde:	8bbd                	andi	a5,a5,15
    a0000de0:	0ff7f793          	andi	a5,a5,255
    a0000de4:	2781                	sext.w	a5,a5
    a0000de6:	fef42623          	sw	a5,-20(s0)

//		 UART7_TX_DAT = c;

		 //sleep_(1);
		 //b =  UART7_TX_FULL;
	  SYS_CPU_EN = c;
    a0000dea:	fe442783          	lw	a5,-28(s0)
    a0000dee:	0007871b          	sext.w	a4,a5
    a0000df2:	450007b7          	lui	a5,0x45000
    a0000df6:	8b3d                	andi	a4,a4,15
    a0000df8:	0ff77713          	andi	a4,a4,255
    a0000dfc:	00f77613          	andi	a2,a4,15
    a0000e00:	4398                	lw	a4,0(a5)
    a0000e02:	9b41                	andi	a4,a4,-16
    a0000e04:	86ba                	mv	a3,a4
    a0000e06:	8732                	mv	a4,a2
    a0000e08:	8f55                	or	a4,a4,a3
    a0000e0a:	c398                	sw	a4,0(a5)
		 _printf("d");
    a0000e0c:	b7c1                	j	a0000dcc <main_3+0xc>

00000000a0000e0e <_init_bss_section>:

const unsigned int _bss_s;
const unsigned int _bss_e;

void _init_bss_section(void)
{
    a0000e0e:	1101                	addi	sp,sp,-32
    a0000e10:	ec06                	sd	ra,24(sp)
    a0000e12:	e822                	sd	s0,16(sp)
    a0000e14:	1000                	addi	s0,sp,32
	UINT pDst = (UINT)(intptr_t)(_bss_s);
    a0000e16:	00004797          	auipc	a5,0x4
    a0000e1a:	36a78793          	addi	a5,a5,874 # a0005180 <_bss_s>
    a0000e1e:	439c                	lw	a5,0(a5)
    a0000e20:	fef42623          	sw	a5,-20(s0)
	if( pDst == 0) return;
    a0000e24:	fec42783          	lw	a5,-20(s0)
    a0000e28:	2781                	sext.w	a5,a5
    a0000e2a:	cb95                	beqz	a5,a0000e5e <_init_bss_section+0x50>
	UINT n = _bss_e - _bss_s;
    a0000e2c:	00004797          	auipc	a5,0x4
    a0000e30:	35878793          	addi	a5,a5,856 # a0005184 <_bss_e>
    a0000e34:	4398                	lw	a4,0(a5)
    a0000e36:	00004797          	auipc	a5,0x4
    a0000e3a:	34a78793          	addi	a5,a5,842 # a0005180 <_bss_s>
    a0000e3e:	439c                	lw	a5,0(a5)
    a0000e40:	40f707bb          	subw	a5,a4,a5
    a0000e44:	fef42423          	sw	a5,-24(s0)
	dma_set(pDst, n, 0);
    a0000e48:	fe842703          	lw	a4,-24(s0)
    a0000e4c:	fec42783          	lw	a5,-20(s0)
    a0000e50:	4601                	li	a2,0
    a0000e52:	85ba                	mv	a1,a4
    a0000e54:	853e                	mv	a0,a5
    a0000e56:	044020ef          	jal	ra,a0002e9a <dma_set>
	return;
    a0000e5a:	0001                	nop
    a0000e5c:	a011                	j	a0000e60 <_init_bss_section+0x52>
	if( pDst == 0) return;
    a0000e5e:	0001                	nop
}
    a0000e60:	60e2                	ld	ra,24(sp)
    a0000e62:	6442                	ld	s0,16(sp)
    a0000e64:	6105                	addi	sp,sp,32
    a0000e66:	8082                	ret

00000000a0000e68 <_init_data_section>:
const unsigned int _data_s;
const unsigned int _data_e;
const unsigned int _data_lma_s;

void _init_data_section(void)
{
    a0000e68:	1141                	addi	sp,sp,-16
    a0000e6a:	e406                	sd	ra,8(sp)
    a0000e6c:	e022                	sd	s0,0(sp)
    a0000e6e:	0800                	addi	s0,sp,16
	dma_copy((UINT)_data_s, (UINT)_data_lma_s, (UINT)(_data_e - _data_s));
    a0000e70:	00004797          	auipc	a5,0x4
    a0000e74:	30878793          	addi	a5,a5,776 # a0005178 <_data_s>
    a0000e78:	4394                	lw	a3,0(a5)
    a0000e7a:	00004797          	auipc	a5,0x4
    a0000e7e:	2e678793          	addi	a5,a5,742 # a0005160 <_data_lma_s>
    a0000e82:	438c                	lw	a1,0(a5)
    a0000e84:	00004797          	auipc	a5,0x4
    a0000e88:	2f878793          	addi	a5,a5,760 # a000517c <_data_e>
    a0000e8c:	4398                	lw	a4,0(a5)
    a0000e8e:	00004797          	auipc	a5,0x4
    a0000e92:	2ea78793          	addi	a5,a5,746 # a0005178 <_data_s>
    a0000e96:	439c                	lw	a5,0(a5)
    a0000e98:	40f707bb          	subw	a5,a4,a5
    a0000e9c:	2781                	sext.w	a5,a5
    a0000e9e:	863e                	mv	a2,a5
    a0000ea0:	8536                	mv	a0,a3
    a0000ea2:	707010ef          	jal	ra,a0002da8 <dma_copy>
}
    a0000ea6:	0001                	nop
    a0000ea8:	60a2                	ld	ra,8(sp)
    a0000eaa:	6402                	ld	s0,0(sp)
    a0000eac:	0141                	addi	sp,sp,16
    a0000eae:	8082                	ret

00000000a0000eb0 <sfls_init>:
#include "en675.h"
#include "reg.h"

void sfls_init()
{
    a0000eb0:	1141                	addi	sp,sp,-16
    a0000eb2:	e422                	sd	s0,8(sp)
    a0000eb4:	0800                	addi	s0,sp,16
	while(!SFLS_SFLS_ID_VAL);
    a0000eb6:	0001                	nop
    a0000eb8:	404007b7          	lui	a5,0x40400
    a0000ebc:	439c                	lw	a5,0(a5)
    a0000ebe:	8b85                	andi	a5,a5,1
    a0000ec0:	0ff7f793          	andi	a5,a5,255
    a0000ec4:	dbf5                	beqz	a5,a0000eb8 <sfls_init+0x8>
	SFLS_USR_CMD = 0x38;
    a0000ec6:	404007b7          	lui	a5,0x40400
    a0000eca:	07e1                	addi	a5,a5,24
    a0000ecc:	03800713          	li	a4,56
    a0000ed0:	00e78023          	sb	a4,0(a5) # 40400000 <_ftext+0x40400000>
	SFLS_BUS_CMD_RD		= 0xEB;
    a0000ed4:	404007b7          	lui	a5,0x40400
    a0000ed8:	07a1                	addi	a5,a5,8
    a0000eda:	572d                	li	a4,-21
    a0000edc:	00e781a3          	sb	a4,3(a5) # 40400003 <_ftext+0x40400003>
	SFLS_BUS_CMD_WR		= 0x02;
    a0000ee0:	404007b7          	lui	a5,0x40400
    a0000ee4:	07a1                	addi	a5,a5,8
    a0000ee6:	4709                	li	a4,2
    a0000ee8:	00e78123          	sb	a4,2(a5) # 40400002 <_ftext+0x40400002>
	SFLS_BUS_CMD_WREN	= 0x06;
    a0000eec:	404007b7          	lui	a5,0x40400
    a0000ef0:	07a1                	addi	a5,a5,8
    a0000ef2:	4719                	li	a4,6
    a0000ef4:	00e780a3          	sb	a4,1(a5) # 40400001 <_ftext+0x40400001>
	SFLS_BUS_CMD_RDREG	= 0x05;
    a0000ef8:	404007b7          	lui	a5,0x40400
    a0000efc:	07a1                	addi	a5,a5,8
    a0000efe:	4715                	li	a4,5
    a0000f00:	00e78023          	sb	a4,0(a5) # 40400000 <_ftext+0x40400000>
	SFLS_BUS_RD_CMD_MODE = 2;
    a0000f04:	404007b7          	lui	a5,0x40400
    a0000f08:	07c1                	addi	a5,a5,16
    a0000f0a:	4394                	lw	a3,0(a5)
    a0000f0c:	40000737          	lui	a4,0x40000
    a0000f10:	177d                	addi	a4,a4,-1
    a0000f12:	8f75                	and	a4,a4,a3
    a0000f14:	86ba                	mv	a3,a4
    a0000f16:	80000737          	lui	a4,0x80000
    a0000f1a:	8f55                	or	a4,a4,a3
    a0000f1c:	c398                	sw	a4,0(a5)
	SFLS_BUS_RD_ADR_MODE = 2;
    a0000f1e:	404007b7          	lui	a5,0x40400
    a0000f22:	07c1                	addi	a5,a5,16
    a0000f24:	4394                	lw	a3,0(a5)
    a0000f26:	d0000737          	lui	a4,0xd0000
    a0000f2a:	177d                	addi	a4,a4,-1
    a0000f2c:	8f75                	and	a4,a4,a3
    a0000f2e:	86ba                	mv	a3,a4
    a0000f30:	20000737          	lui	a4,0x20000
    a0000f34:	8f55                	or	a4,a4,a3
    a0000f36:	c398                	sw	a4,0(a5)
	SFLS_BUS_RD_DAT_MODE = 2;
    a0000f38:	404007b7          	lui	a5,0x40400
    a0000f3c:	07c1                	addi	a5,a5,16
    a0000f3e:	4394                	lw	a3,0(a5)
    a0000f40:	f4000737          	lui	a4,0xf4000
    a0000f44:	177d                	addi	a4,a4,-1
    a0000f46:	8f75                	and	a4,a4,a3
    a0000f48:	86ba                	mv	a3,a4
    a0000f4a:	08000737          	lui	a4,0x8000
    a0000f4e:	8f55                	or	a4,a4,a3
    a0000f50:	c398                	sw	a4,0(a5)
	SFLS_BUS_WR_CMD_MODE = 2;
    a0000f52:	404007b7          	lui	a5,0x40400
    a0000f56:	07c1                	addi	a5,a5,16
    a0000f58:	4394                	lw	a3,0(a5)
    a0000f5a:	fd000737          	lui	a4,0xfd000
    a0000f5e:	177d                	addi	a4,a4,-1
    a0000f60:	8f75                	and	a4,a4,a3
    a0000f62:	86ba                	mv	a3,a4
    a0000f64:	02000737          	lui	a4,0x2000
    a0000f68:	8f55                	or	a4,a4,a3
    a0000f6a:	c398                	sw	a4,0(a5)
	SFLS_BUS_WR_ADR_MODE = 2;
    a0000f6c:	404007b7          	lui	a5,0x40400
    a0000f70:	07c1                	addi	a5,a5,16
    a0000f72:	4394                	lw	a3,0(a5)
    a0000f74:	ff400737          	lui	a4,0xff400
    a0000f78:	177d                	addi	a4,a4,-1
    a0000f7a:	8f75                	and	a4,a4,a3
    a0000f7c:	86ba                	mv	a3,a4
    a0000f7e:	00800737          	lui	a4,0x800
    a0000f82:	8f55                	or	a4,a4,a3
    a0000f84:	c398                	sw	a4,0(a5)
	SFLS_BUS_WR_DAT_MODE = 2;
    a0000f86:	404007b7          	lui	a5,0x40400
    a0000f8a:	07c1                	addi	a5,a5,16
    a0000f8c:	4394                	lw	a3,0(a5)
    a0000f8e:	ffd00737          	lui	a4,0xffd00
    a0000f92:	177d                	addi	a4,a4,-1
    a0000f94:	8f75                	and	a4,a4,a3
    a0000f96:	86ba                	mv	a3,a4
    a0000f98:	00200737          	lui	a4,0x200
    a0000f9c:	8f55                	or	a4,a4,a3
    a0000f9e:	c398                	sw	a4,0(a5)
	SFLS_BUS_WREN_CMD_MODE = 2;
    a0000fa0:	404007b7          	lui	a5,0x40400
    a0000fa4:	07c1                	addi	a5,a5,16
    a0000fa6:	4394                	lw	a3,0(a5)
    a0000fa8:	fff40737          	lui	a4,0xfff40
    a0000fac:	177d                	addi	a4,a4,-1
    a0000fae:	8f75                	and	a4,a4,a3
    a0000fb0:	86ba                	mv	a3,a4
    a0000fb2:	00080737          	lui	a4,0x80
    a0000fb6:	8f55                	or	a4,a4,a3
    a0000fb8:	c398                	sw	a4,0(a5)
	SFLS_BUS_RDREG_CMD_MODE = 2;
    a0000fba:	404007b7          	lui	a5,0x40400
    a0000fbe:	07c1                	addi	a5,a5,16
    a0000fc0:	4394                	lw	a3,0(a5)
    a0000fc2:	fffd0737          	lui	a4,0xfffd0
    a0000fc6:	177d                	addi	a4,a4,-1
    a0000fc8:	8f75                	and	a4,a4,a3
    a0000fca:	86ba                	mv	a3,a4
    a0000fcc:	00020737          	lui	a4,0x20
    a0000fd0:	8f55                	or	a4,a4,a3
    a0000fd2:	c398                	sw	a4,0(a5)
	SFLS_BUS_RDREG_DAT_MODE = 2;
    a0000fd4:	404007b7          	lui	a5,0x40400
    a0000fd8:	07c1                	addi	a5,a5,16
    a0000fda:	4394                	lw	a3,0(a5)
    a0000fdc:	7751                	lui	a4,0xffff4
    a0000fde:	177d                	addi	a4,a4,-1
    a0000fe0:	8f75                	and	a4,a4,a3
    a0000fe2:	86ba                	mv	a3,a4
    a0000fe4:	6721                	lui	a4,0x8
    a0000fe6:	8f55                	or	a4,a4,a3
    a0000fe8:	c398                	sw	a4,0(a5)
	SFLS_BUS_GAP_EN = 1;
    a0000fea:	404007b7          	lui	a5,0x40400
    a0000fee:	07c1                	addi	a5,a5,16
    a0000ff0:	4394                	lw	a3,0(a5)
    a0000ff2:	6705                	lui	a4,0x1
    a0000ff4:	8f55                	or	a4,a4,a3
    a0000ff6:	c398                	sw	a4,0(a5)
	SFLS_BUS_GAP = 6;
    a0000ff8:	404007b7          	lui	a5,0x40400
    a0000ffc:	07c1                	addi	a5,a5,16
    a0000ffe:	4394                	lw	a3,0(a5)
    a0001000:	777d                	lui	a4,0xfffff
    a0001002:	0ff70713          	addi	a4,a4,255 # fffffffffffff0ff <__bss_e+0xffffffff5fff5e3f>
    a0001006:	8f75                	and	a4,a4,a3
    a0001008:	60076713          	ori	a4,a4,1536
    a000100c:	c398                	sw	a4,0(a5)
	SFLS_IO_CLKDIV = 0;
    a000100e:	404007b7          	lui	a5,0x40400
    a0001012:	03878793          	addi	a5,a5,56 # 40400038 <_ftext+0x40400038>
    a0001016:	4394                	lw	a3,0(a5)
    a0001018:	fff10737          	lui	a4,0xfff10
    a000101c:	177d                	addi	a4,a4,-1
    a000101e:	8f75                	and	a4,a4,a3
    a0001020:	c398                	sw	a4,0(a5)
	SFLS_IO_RDLTC = 1;
    a0001022:	404007b7          	lui	a5,0x40400
    a0001026:	03878793          	addi	a5,a5,56 # 40400038 <_ftext+0x40400038>
    a000102a:	4394                	lw	a3,0(a5)
    a000102c:	fd000737          	lui	a4,0xfd000
    a0001030:	177d                	addi	a4,a4,-1
    a0001032:	8f75                	and	a4,a4,a3
    a0001034:	86ba                	mv	a3,a4
    a0001036:	01000737          	lui	a4,0x1000
    a000103a:	8f55                	or	a4,a4,a3
    a000103c:	c398                	sw	a4,0(a5)
	SFLS_USRBUS_REQ = 1;
    a000103e:	404007b7          	lui	a5,0x40400
    a0001042:	03878793          	addi	a5,a5,56 # 40400038 <_ftext+0x40400038>
    a0001046:	4398                	lw	a4,0(a5)
    a0001048:	00476713          	ori	a4,a4,4
    a000104c:	c398                	sw	a4,0(a5)
	while(SFLS_BUS_REQ);
    a000104e:	0001                	nop
    a0001050:	404007b7          	lui	a5,0x40400
    a0001054:	03878793          	addi	a5,a5,56 # 40400038 <_ftext+0x40400038>
    a0001058:	439c                	lw	a5,0(a5)
    a000105a:	0017d79b          	srliw	a5,a5,0x1
    a000105e:	8b85                	andi	a5,a5,1
    a0001060:	0ff7f793          	andi	a5,a5,255
    a0001064:	f7f5                	bnez	a5,a0001050 <sfls_init+0x1a0>
}
    a0001066:	0001                	nop
    a0001068:	6422                	ld	s0,8(sp)
    a000106a:	0141                	addi	sp,sp,16
    a000106c:	8082                	ret

00000000a000106e <DdrMapTest>:

#define TEST_DDR_SIZE DDR_SIZE
//#define TEST_DDR_SIZE 1*1024

char DdrMapTest(void)
{
    a000106e:	7179                	addi	sp,sp,-48
    a0001070:	f406                	sd	ra,40(sp)
    a0001072:	f022                	sd	s0,32(sp)
    a0001074:	1800                	addi	s0,sp,48
	volatile ULONG *pDDR = (volatile ULONG *)DDR_BASE;
    a0001076:	4785                	li	a5,1
    a0001078:	07fe                	slli	a5,a5,0x1f
    a000107a:	fef43423          	sd	a5,-24(s0)
	//printf("DDR MAP Test - Write\n");
	for(pDDR = (volatile ULONG *)DDR_BASE; pDDR < (volatile ULONG *)(DDR_BASE+TEST_DDR_SIZE); pDDR++)
    a000107e:	4785                	li	a5,1
    a0001080:	07fe                	slli	a5,a5,0x1f
    a0001082:	fef43423          	sd	a5,-24(s0)
    a0001086:	a805                	j	a00010b6 <DdrMapTest+0x48>
	{
	  if ((ULONG)pDDR % 64 == 0) hwflush_dcache_range((ULONG)pDDR, 0x40);
    a0001088:	fe843783          	ld	a5,-24(s0)
    a000108c:	03f7f793          	andi	a5,a5,63
    a0001090:	eb89                	bnez	a5,a00010a2 <DdrMapTest+0x34>
    a0001092:	fe843783          	ld	a5,-24(s0)
    a0001096:	2781                	sext.w	a5,a5
    a0001098:	04000593          	li	a1,64
    a000109c:	853e                	mv	a0,a5
    a000109e:	120030ef          	jal	ra,a00041be <hwflush_dcache_range>
	*pDDR = (ULONG)pDDR;
    a00010a2:	fe843703          	ld	a4,-24(s0)
    a00010a6:	fe843783          	ld	a5,-24(s0)
    a00010aa:	e398                	sd	a4,0(a5)
	for(pDDR = (volatile ULONG *)DDR_BASE; pDDR < (volatile ULONG *)(DDR_BASE+TEST_DDR_SIZE); pDDR++)
    a00010ac:	fe843783          	ld	a5,-24(s0)
    a00010b0:	07a1                	addi	a5,a5,8
    a00010b2:	fef43423          	sd	a5,-24(s0)
    a00010b6:	fe843703          	ld	a4,-24(s0)
    a00010ba:	02100793          	li	a5,33
    a00010be:	07ea                	slli	a5,a5,0x1a
    a00010c0:	fcf764e3          	bltu	a4,a5,a0001088 <DdrMapTest+0x1a>
	}
	ULONG ok = 0, fail = 0;
    a00010c4:	fe043023          	sd	zero,-32(s0)
    a00010c8:	fc043c23          	sd	zero,-40(s0)
	for(pDDR = (volatile ULONG *)DDR_BASE; pDDR < (volatile ULONG *)(DDR_BASE+TEST_DDR_SIZE); pDDR++)
    a00010cc:	4785                	li	a5,1
    a00010ce:	07fe                	slli	a5,a5,0x1f
    a00010d0:	fef43423          	sd	a5,-24(s0)
    a00010d4:	a09d                	j	a000113a <DdrMapTest+0xcc>
	{
		if ((ULONG)pDDR % 64 == 0) hwflush_dcache_range((ULONG)pDDR, 0x40);
    a00010d6:	fe843783          	ld	a5,-24(s0)
    a00010da:	03f7f793          	andi	a5,a5,63
    a00010de:	eb89                	bnez	a5,a00010f0 <DdrMapTest+0x82>
    a00010e0:	fe843783          	ld	a5,-24(s0)
    a00010e4:	2781                	sext.w	a5,a5
    a00010e6:	04000593          	li	a1,64
    a00010ea:	853e                	mv	a0,a5
    a00010ec:	0d2030ef          	jal	ra,a00041be <hwflush_dcache_range>
		ULONG getdata = *pDDR;
    a00010f0:	fe843783          	ld	a5,-24(s0)
    a00010f4:	639c                	ld	a5,0(a5)
    a00010f6:	fcf43823          	sd	a5,-48(s0)
		if (getdata != (ULONG)pDDR)
    a00010fa:	fe843783          	ld	a5,-24(s0)
    a00010fe:	fd043703          	ld	a4,-48(s0)
    a0001102:	02f70263          	beq	a4,a5,a0001126 <DdrMapTest+0xb8>
		{
			_printf("DDR Test - X: %08lx 0x%08lx\n", pDDR, getdata);
    a0001106:	fd043603          	ld	a2,-48(s0)
    a000110a:	fe843583          	ld	a1,-24(s0)
    a000110e:	00004517          	auipc	a0,0x4
    a0001112:	c3250513          	addi	a0,a0,-974 # a0004d40 <__text_e+0xc0>
    a0001116:	004030ef          	jal	ra,a000411a <_printf>
                fail++;
    a000111a:	fd843783          	ld	a5,-40(s0)
    a000111e:	0785                	addi	a5,a5,1
    a0001120:	fcf43c23          	sd	a5,-40(s0)
    a0001124:	a031                	j	a0001130 <DdrMapTest+0xc2>
		}
		else
		{
			ok++;
    a0001126:	fe043783          	ld	a5,-32(s0)
    a000112a:	0785                	addi	a5,a5,1
    a000112c:	fef43023          	sd	a5,-32(s0)
	for(pDDR = (volatile ULONG *)DDR_BASE; pDDR < (volatile ULONG *)(DDR_BASE+TEST_DDR_SIZE); pDDR++)
    a0001130:	fe843783          	ld	a5,-24(s0)
    a0001134:	07a1                	addi	a5,a5,8
    a0001136:	fef43423          	sd	a5,-24(s0)
    a000113a:	fe843703          	ld	a4,-24(s0)
    a000113e:	02100793          	li	a5,33
    a0001142:	07ea                	slli	a5,a5,0x1a
    a0001144:	f8f769e3          	bltu	a4,a5,a00010d6 <DdrMapTest+0x68>
		}
     }
	_printf("DDR Test - Done(O:%lu X:%lu)\n", ok, fail);
    a0001148:	fd843603          	ld	a2,-40(s0)
    a000114c:	fe043583          	ld	a1,-32(s0)
    a0001150:	00004517          	auipc	a0,0x4
    a0001154:	c1050513          	addi	a0,a0,-1008 # a0004d60 <__text_e+0xe0>
    a0001158:	7c3020ef          	jal	ra,a000411a <_printf>
	return ((fail)? 1 : 0);
    a000115c:	fd843783          	ld	a5,-40(s0)
    a0001160:	00f037b3          	snez	a5,a5
    a0001164:	0ff7f793          	andi	a5,a5,255
}
    a0001168:	853e                	mv	a0,a5
    a000116a:	70a2                	ld	ra,40(sp)
    a000116c:	7402                	ld	s0,32(sp)
    a000116e:	6145                	addi	sp,sp,48
    a0001170:	8082                	ret

00000000a0001172 <DqG0OutDly>:

void DqG0OutDly(UINT var)
{
    a0001172:	1101                	addi	sp,sp,-32
    a0001174:	ec22                	sd	s0,24(sp)
    a0001176:	1000                	addi	s0,sp,32
    a0001178:	87aa                	mv	a5,a0
    a000117a:	fef42623          	sw	a5,-20(s0)
	DDR_DLY_DQ7OUT  = var;
    a000117e:	403007b7          	lui	a5,0x40300
    a0001182:	06878793          	addi	a5,a5,104 # 40300068 <_ftext+0x40300068>
    a0001186:	fec42703          	lw	a4,-20(s0)
    a000118a:	8b3d                	andi	a4,a4,15
    a000118c:	0ff77713          	andi	a4,a4,255
    a0001190:	01c7171b          	slliw	a4,a4,0x1c
    a0001194:	4390                	lw	a2,0(a5)
    a0001196:	100006b7          	lui	a3,0x10000
    a000119a:	16fd                	addi	a3,a3,-1
    a000119c:	8ef1                	and	a3,a3,a2
    a000119e:	8f55                	or	a4,a4,a3
    a00011a0:	c398                	sw	a4,0(a5)
	DDR_DLY_DQ6OUT  = var;
    a00011a2:	403007b7          	lui	a5,0x40300
    a00011a6:	06878793          	addi	a5,a5,104 # 40300068 <_ftext+0x40300068>
    a00011aa:	fec42703          	lw	a4,-20(s0)
    a00011ae:	8b3d                	andi	a4,a4,15
    a00011b0:	0ff77713          	andi	a4,a4,255
    a00011b4:	8b3d                	andi	a4,a4,15
    a00011b6:	0187171b          	slliw	a4,a4,0x18
    a00011ba:	4390                	lw	a2,0(a5)
    a00011bc:	f10006b7          	lui	a3,0xf1000
    a00011c0:	16fd                	addi	a3,a3,-1
    a00011c2:	8ef1                	and	a3,a3,a2
    a00011c4:	8f55                	or	a4,a4,a3
    a00011c6:	c398                	sw	a4,0(a5)
	DDR_DLY_DQ5OUT  = var;
    a00011c8:	403007b7          	lui	a5,0x40300
    a00011cc:	06878793          	addi	a5,a5,104 # 40300068 <_ftext+0x40300068>
    a00011d0:	fec42703          	lw	a4,-20(s0)
    a00011d4:	8b3d                	andi	a4,a4,15
    a00011d6:	0ff77713          	andi	a4,a4,255
    a00011da:	8b3d                	andi	a4,a4,15
    a00011dc:	0147171b          	slliw	a4,a4,0x14
    a00011e0:	4390                	lw	a2,0(a5)
    a00011e2:	ff1006b7          	lui	a3,0xff100
    a00011e6:	16fd                	addi	a3,a3,-1
    a00011e8:	8ef1                	and	a3,a3,a2
    a00011ea:	8f55                	or	a4,a4,a3
    a00011ec:	c398                	sw	a4,0(a5)
	DDR_DLY_DQ4OUT  = var;
    a00011ee:	403007b7          	lui	a5,0x40300
    a00011f2:	06878793          	addi	a5,a5,104 # 40300068 <_ftext+0x40300068>
    a00011f6:	fec42703          	lw	a4,-20(s0)
    a00011fa:	8b3d                	andi	a4,a4,15
    a00011fc:	0ff77713          	andi	a4,a4,255
    a0001200:	8b3d                	andi	a4,a4,15
    a0001202:	0107171b          	slliw	a4,a4,0x10
    a0001206:	4390                	lw	a2,0(a5)
    a0001208:	fff106b7          	lui	a3,0xfff10
    a000120c:	16fd                	addi	a3,a3,-1
    a000120e:	8ef1                	and	a3,a3,a2
    a0001210:	8f55                	or	a4,a4,a3
    a0001212:	c398                	sw	a4,0(a5)
	DDR_DLY_DQ3OUT  = var;
    a0001214:	403007b7          	lui	a5,0x40300
    a0001218:	06878793          	addi	a5,a5,104 # 40300068 <_ftext+0x40300068>
    a000121c:	fec42703          	lw	a4,-20(s0)
    a0001220:	8b3d                	andi	a4,a4,15
    a0001222:	0ff77713          	andi	a4,a4,255
    a0001226:	8b3d                	andi	a4,a4,15
    a0001228:	00c7171b          	slliw	a4,a4,0xc
    a000122c:	4390                	lw	a2,0(a5)
    a000122e:	76c5                	lui	a3,0xffff1
    a0001230:	16fd                	addi	a3,a3,-1
    a0001232:	8ef1                	and	a3,a3,a2
    a0001234:	8f55                	or	a4,a4,a3
    a0001236:	c398                	sw	a4,0(a5)
	DDR_DLY_DQ2OUT  = var;
    a0001238:	403007b7          	lui	a5,0x40300
    a000123c:	06878793          	addi	a5,a5,104 # 40300068 <_ftext+0x40300068>
    a0001240:	fec42703          	lw	a4,-20(s0)
    a0001244:	8b3d                	andi	a4,a4,15
    a0001246:	0ff77713          	andi	a4,a4,255
    a000124a:	8b3d                	andi	a4,a4,15
    a000124c:	0087171b          	slliw	a4,a4,0x8
    a0001250:	4390                	lw	a2,0(a5)
    a0001252:	76fd                	lui	a3,0xfffff
    a0001254:	0ff68693          	addi	a3,a3,255 # fffffffffffff0ff <__bss_e+0xffffffff5fff5e3f>
    a0001258:	8ef1                	and	a3,a3,a2
    a000125a:	8f55                	or	a4,a4,a3
    a000125c:	c398                	sw	a4,0(a5)
	DDR_DLY_DQ1OUT  = var;
    a000125e:	403007b7          	lui	a5,0x40300
    a0001262:	06878793          	addi	a5,a5,104 # 40300068 <_ftext+0x40300068>
    a0001266:	fec42703          	lw	a4,-20(s0)
    a000126a:	8b3d                	andi	a4,a4,15
    a000126c:	0ff77713          	andi	a4,a4,255
    a0001270:	8b3d                	andi	a4,a4,15
    a0001272:	0047171b          	slliw	a4,a4,0x4
    a0001276:	4394                	lw	a3,0(a5)
    a0001278:	f0f6f693          	andi	a3,a3,-241
    a000127c:	8f55                	or	a4,a4,a3
    a000127e:	c398                	sw	a4,0(a5)
	DDR_DLY_DQ0OUT  = var;
    a0001280:	403007b7          	lui	a5,0x40300
    a0001284:	06878793          	addi	a5,a5,104 # 40300068 <_ftext+0x40300068>
    a0001288:	fec42703          	lw	a4,-20(s0)
    a000128c:	8b3d                	andi	a4,a4,15
    a000128e:	0ff77713          	andi	a4,a4,255
    a0001292:	00f77613          	andi	a2,a4,15
    a0001296:	4398                	lw	a4,0(a5)
    a0001298:	9b41                	andi	a4,a4,-16
    a000129a:	86ba                	mv	a3,a4
    a000129c:	8732                	mv	a4,a2
    a000129e:	8f55                	or	a4,a4,a3
    a00012a0:	c398                	sw	a4,0(a5)
}
    a00012a2:	0001                	nop
    a00012a4:	6462                	ld	s0,24(sp)
    a00012a6:	6105                	addi	sp,sp,32
    a00012a8:	8082                	ret

00000000a00012aa <DqG1OutDly>:
void DqG1OutDly(UINT var)
{
    a00012aa:	1101                	addi	sp,sp,-32
    a00012ac:	ec22                	sd	s0,24(sp)
    a00012ae:	1000                	addi	s0,sp,32
    a00012b0:	87aa                	mv	a5,a0
    a00012b2:	fef42623          	sw	a5,-20(s0)
	DDR_DLY_DQ15OUT = var;
    a00012b6:	403007b7          	lui	a5,0x40300
    a00012ba:	07878793          	addi	a5,a5,120 # 40300078 <_ftext+0x40300078>
    a00012be:	fec42703          	lw	a4,-20(s0)
    a00012c2:	8b3d                	andi	a4,a4,15
    a00012c4:	0ff77713          	andi	a4,a4,255
    a00012c8:	01c7171b          	slliw	a4,a4,0x1c
    a00012cc:	4390                	lw	a2,0(a5)
    a00012ce:	100006b7          	lui	a3,0x10000
    a00012d2:	16fd                	addi	a3,a3,-1
    a00012d4:	8ef1                	and	a3,a3,a2
    a00012d6:	8f55                	or	a4,a4,a3
    a00012d8:	c398                	sw	a4,0(a5)
	DDR_DLY_DQ14OUT = var;
    a00012da:	403007b7          	lui	a5,0x40300
    a00012de:	07878793          	addi	a5,a5,120 # 40300078 <_ftext+0x40300078>
    a00012e2:	fec42703          	lw	a4,-20(s0)
    a00012e6:	8b3d                	andi	a4,a4,15
    a00012e8:	0ff77713          	andi	a4,a4,255
    a00012ec:	8b3d                	andi	a4,a4,15
    a00012ee:	0187171b          	slliw	a4,a4,0x18
    a00012f2:	4390                	lw	a2,0(a5)
    a00012f4:	f10006b7          	lui	a3,0xf1000
    a00012f8:	16fd                	addi	a3,a3,-1
    a00012fa:	8ef1                	and	a3,a3,a2
    a00012fc:	8f55                	or	a4,a4,a3
    a00012fe:	c398                	sw	a4,0(a5)
	DDR_DLY_DQ13OUT = var;
    a0001300:	403007b7          	lui	a5,0x40300
    a0001304:	07878793          	addi	a5,a5,120 # 40300078 <_ftext+0x40300078>
    a0001308:	fec42703          	lw	a4,-20(s0)
    a000130c:	8b3d                	andi	a4,a4,15
    a000130e:	0ff77713          	andi	a4,a4,255
    a0001312:	8b3d                	andi	a4,a4,15
    a0001314:	0147171b          	slliw	a4,a4,0x14
    a0001318:	4390                	lw	a2,0(a5)
    a000131a:	ff1006b7          	lui	a3,0xff100
    a000131e:	16fd                	addi	a3,a3,-1
    a0001320:	8ef1                	and	a3,a3,a2
    a0001322:	8f55                	or	a4,a4,a3
    a0001324:	c398                	sw	a4,0(a5)
	DDR_DLY_DQ12OUT = var;
    a0001326:	403007b7          	lui	a5,0x40300
    a000132a:	07878793          	addi	a5,a5,120 # 40300078 <_ftext+0x40300078>
    a000132e:	fec42703          	lw	a4,-20(s0)
    a0001332:	8b3d                	andi	a4,a4,15
    a0001334:	0ff77713          	andi	a4,a4,255
    a0001338:	8b3d                	andi	a4,a4,15
    a000133a:	0107171b          	slliw	a4,a4,0x10
    a000133e:	4390                	lw	a2,0(a5)
    a0001340:	fff106b7          	lui	a3,0xfff10
    a0001344:	16fd                	addi	a3,a3,-1
    a0001346:	8ef1                	and	a3,a3,a2
    a0001348:	8f55                	or	a4,a4,a3
    a000134a:	c398                	sw	a4,0(a5)
	DDR_DLY_DQ11OUT = var;
    a000134c:	403007b7          	lui	a5,0x40300
    a0001350:	07878793          	addi	a5,a5,120 # 40300078 <_ftext+0x40300078>
    a0001354:	fec42703          	lw	a4,-20(s0)
    a0001358:	8b3d                	andi	a4,a4,15
    a000135a:	0ff77713          	andi	a4,a4,255
    a000135e:	8b3d                	andi	a4,a4,15
    a0001360:	00c7171b          	slliw	a4,a4,0xc
    a0001364:	4390                	lw	a2,0(a5)
    a0001366:	76c5                	lui	a3,0xffff1
    a0001368:	16fd                	addi	a3,a3,-1
    a000136a:	8ef1                	and	a3,a3,a2
    a000136c:	8f55                	or	a4,a4,a3
    a000136e:	c398                	sw	a4,0(a5)
	DDR_DLY_DQ10OUT = var;
    a0001370:	403007b7          	lui	a5,0x40300
    a0001374:	07878793          	addi	a5,a5,120 # 40300078 <_ftext+0x40300078>
    a0001378:	fec42703          	lw	a4,-20(s0)
    a000137c:	8b3d                	andi	a4,a4,15
    a000137e:	0ff77713          	andi	a4,a4,255
    a0001382:	8b3d                	andi	a4,a4,15
    a0001384:	0087171b          	slliw	a4,a4,0x8
    a0001388:	4390                	lw	a2,0(a5)
    a000138a:	76fd                	lui	a3,0xfffff
    a000138c:	0ff68693          	addi	a3,a3,255 # fffffffffffff0ff <__bss_e+0xffffffff5fff5e3f>
    a0001390:	8ef1                	and	a3,a3,a2
    a0001392:	8f55                	or	a4,a4,a3
    a0001394:	c398                	sw	a4,0(a5)
	DDR_DLY_DQ9OUT  = var;
    a0001396:	403007b7          	lui	a5,0x40300
    a000139a:	07878793          	addi	a5,a5,120 # 40300078 <_ftext+0x40300078>
    a000139e:	fec42703          	lw	a4,-20(s0)
    a00013a2:	8b3d                	andi	a4,a4,15
    a00013a4:	0ff77713          	andi	a4,a4,255
    a00013a8:	8b3d                	andi	a4,a4,15
    a00013aa:	0047171b          	slliw	a4,a4,0x4
    a00013ae:	4394                	lw	a3,0(a5)
    a00013b0:	f0f6f693          	andi	a3,a3,-241
    a00013b4:	8f55                	or	a4,a4,a3
    a00013b6:	c398                	sw	a4,0(a5)
	DDR_DLY_DQ8OUT  = var;
    a00013b8:	403007b7          	lui	a5,0x40300
    a00013bc:	07878793          	addi	a5,a5,120 # 40300078 <_ftext+0x40300078>
    a00013c0:	fec42703          	lw	a4,-20(s0)
    a00013c4:	8b3d                	andi	a4,a4,15
    a00013c6:	0ff77713          	andi	a4,a4,255
    a00013ca:	00f77613          	andi	a2,a4,15
    a00013ce:	4398                	lw	a4,0(a5)
    a00013d0:	9b41                	andi	a4,a4,-16
    a00013d2:	86ba                	mv	a3,a4
    a00013d4:	8732                	mv	a4,a2
    a00013d6:	8f55                	or	a4,a4,a3
    a00013d8:	c398                	sw	a4,0(a5)
}
    a00013da:	0001                	nop
    a00013dc:	6462                	ld	s0,24(sp)
    a00013de:	6105                	addi	sp,sp,32
    a00013e0:	8082                	ret

00000000a00013e2 <DqG2OutDly>:
void DqG2OutDly(UINT var)
{
    a00013e2:	1101                	addi	sp,sp,-32
    a00013e4:	ec22                	sd	s0,24(sp)
    a00013e6:	1000                	addi	s0,sp,32
    a00013e8:	87aa                	mv	a5,a0
    a00013ea:	fef42623          	sw	a5,-20(s0)
	DDR_DLY_DQ23OUT = var;
    a00013ee:	403007b7          	lui	a5,0x40300
    a00013f2:	08878793          	addi	a5,a5,136 # 40300088 <_ftext+0x40300088>
    a00013f6:	fec42703          	lw	a4,-20(s0)
    a00013fa:	8b3d                	andi	a4,a4,15
    a00013fc:	0ff77713          	andi	a4,a4,255
    a0001400:	01c7171b          	slliw	a4,a4,0x1c
    a0001404:	4390                	lw	a2,0(a5)
    a0001406:	100006b7          	lui	a3,0x10000
    a000140a:	16fd                	addi	a3,a3,-1
    a000140c:	8ef1                	and	a3,a3,a2
    a000140e:	8f55                	or	a4,a4,a3
    a0001410:	c398                	sw	a4,0(a5)
	DDR_DLY_DQ22OUT = var;
    a0001412:	403007b7          	lui	a5,0x40300
    a0001416:	08878793          	addi	a5,a5,136 # 40300088 <_ftext+0x40300088>
    a000141a:	fec42703          	lw	a4,-20(s0)
    a000141e:	8b3d                	andi	a4,a4,15
    a0001420:	0ff77713          	andi	a4,a4,255
    a0001424:	8b3d                	andi	a4,a4,15
    a0001426:	0187171b          	slliw	a4,a4,0x18
    a000142a:	4390                	lw	a2,0(a5)
    a000142c:	f10006b7          	lui	a3,0xf1000
    a0001430:	16fd                	addi	a3,a3,-1
    a0001432:	8ef1                	and	a3,a3,a2
    a0001434:	8f55                	or	a4,a4,a3
    a0001436:	c398                	sw	a4,0(a5)
	DDR_DLY_DQ21OUT = var;
    a0001438:	403007b7          	lui	a5,0x40300
    a000143c:	08878793          	addi	a5,a5,136 # 40300088 <_ftext+0x40300088>
    a0001440:	fec42703          	lw	a4,-20(s0)
    a0001444:	8b3d                	andi	a4,a4,15
    a0001446:	0ff77713          	andi	a4,a4,255
    a000144a:	8b3d                	andi	a4,a4,15
    a000144c:	0147171b          	slliw	a4,a4,0x14
    a0001450:	4390                	lw	a2,0(a5)
    a0001452:	ff1006b7          	lui	a3,0xff100
    a0001456:	16fd                	addi	a3,a3,-1
    a0001458:	8ef1                	and	a3,a3,a2
    a000145a:	8f55                	or	a4,a4,a3
    a000145c:	c398                	sw	a4,0(a5)
	DDR_DLY_DQ20OUT = var;
    a000145e:	403007b7          	lui	a5,0x40300
    a0001462:	08878793          	addi	a5,a5,136 # 40300088 <_ftext+0x40300088>
    a0001466:	fec42703          	lw	a4,-20(s0)
    a000146a:	8b3d                	andi	a4,a4,15
    a000146c:	0ff77713          	andi	a4,a4,255
    a0001470:	8b3d                	andi	a4,a4,15
    a0001472:	0107171b          	slliw	a4,a4,0x10
    a0001476:	4390                	lw	a2,0(a5)
    a0001478:	fff106b7          	lui	a3,0xfff10
    a000147c:	16fd                	addi	a3,a3,-1
    a000147e:	8ef1                	and	a3,a3,a2
    a0001480:	8f55                	or	a4,a4,a3
    a0001482:	c398                	sw	a4,0(a5)
	DDR_DLY_DQ19OUT = var;
    a0001484:	403007b7          	lui	a5,0x40300
    a0001488:	08878793          	addi	a5,a5,136 # 40300088 <_ftext+0x40300088>
    a000148c:	fec42703          	lw	a4,-20(s0)
    a0001490:	8b3d                	andi	a4,a4,15
    a0001492:	0ff77713          	andi	a4,a4,255
    a0001496:	8b3d                	andi	a4,a4,15
    a0001498:	00c7171b          	slliw	a4,a4,0xc
    a000149c:	4390                	lw	a2,0(a5)
    a000149e:	76c5                	lui	a3,0xffff1
    a00014a0:	16fd                	addi	a3,a3,-1
    a00014a2:	8ef1                	and	a3,a3,a2
    a00014a4:	8f55                	or	a4,a4,a3
    a00014a6:	c398                	sw	a4,0(a5)
	DDR_DLY_DQ18OUT = var;
    a00014a8:	403007b7          	lui	a5,0x40300
    a00014ac:	08878793          	addi	a5,a5,136 # 40300088 <_ftext+0x40300088>
    a00014b0:	fec42703          	lw	a4,-20(s0)
    a00014b4:	8b3d                	andi	a4,a4,15
    a00014b6:	0ff77713          	andi	a4,a4,255
    a00014ba:	8b3d                	andi	a4,a4,15
    a00014bc:	0087171b          	slliw	a4,a4,0x8
    a00014c0:	4390                	lw	a2,0(a5)
    a00014c2:	76fd                	lui	a3,0xfffff
    a00014c4:	0ff68693          	addi	a3,a3,255 # fffffffffffff0ff <__bss_e+0xffffffff5fff5e3f>
    a00014c8:	8ef1                	and	a3,a3,a2
    a00014ca:	8f55                	or	a4,a4,a3
    a00014cc:	c398                	sw	a4,0(a5)
	DDR_DLY_DQ17OUT = var;
    a00014ce:	403007b7          	lui	a5,0x40300
    a00014d2:	08878793          	addi	a5,a5,136 # 40300088 <_ftext+0x40300088>
    a00014d6:	fec42703          	lw	a4,-20(s0)
    a00014da:	8b3d                	andi	a4,a4,15
    a00014dc:	0ff77713          	andi	a4,a4,255
    a00014e0:	8b3d                	andi	a4,a4,15
    a00014e2:	0047171b          	slliw	a4,a4,0x4
    a00014e6:	4394                	lw	a3,0(a5)
    a00014e8:	f0f6f693          	andi	a3,a3,-241
    a00014ec:	8f55                	or	a4,a4,a3
    a00014ee:	c398                	sw	a4,0(a5)
	DDR_DLY_DQ16OUT = var;
    a00014f0:	403007b7          	lui	a5,0x40300
    a00014f4:	08878793          	addi	a5,a5,136 # 40300088 <_ftext+0x40300088>
    a00014f8:	fec42703          	lw	a4,-20(s0)
    a00014fc:	8b3d                	andi	a4,a4,15
    a00014fe:	0ff77713          	andi	a4,a4,255
    a0001502:	00f77613          	andi	a2,a4,15
    a0001506:	4398                	lw	a4,0(a5)
    a0001508:	9b41                	andi	a4,a4,-16
    a000150a:	86ba                	mv	a3,a4
    a000150c:	8732                	mv	a4,a2
    a000150e:	8f55                	or	a4,a4,a3
    a0001510:	c398                	sw	a4,0(a5)
}
    a0001512:	0001                	nop
    a0001514:	6462                	ld	s0,24(sp)
    a0001516:	6105                	addi	sp,sp,32
    a0001518:	8082                	ret

00000000a000151a <DqG3OutDly>:
void DqG3OutDly(UINT var)
{
    a000151a:	1101                	addi	sp,sp,-32
    a000151c:	ec22                	sd	s0,24(sp)
    a000151e:	1000                	addi	s0,sp,32
    a0001520:	87aa                	mv	a5,a0
    a0001522:	fef42623          	sw	a5,-20(s0)
	DDR_DLY_DQ31OUT = var;
    a0001526:	403007b7          	lui	a5,0x40300
    a000152a:	09878793          	addi	a5,a5,152 # 40300098 <_ftext+0x40300098>
    a000152e:	fec42703          	lw	a4,-20(s0)
    a0001532:	8b3d                	andi	a4,a4,15
    a0001534:	0ff77713          	andi	a4,a4,255
    a0001538:	01c7171b          	slliw	a4,a4,0x1c
    a000153c:	4390                	lw	a2,0(a5)
    a000153e:	100006b7          	lui	a3,0x10000
    a0001542:	16fd                	addi	a3,a3,-1
    a0001544:	8ef1                	and	a3,a3,a2
    a0001546:	8f55                	or	a4,a4,a3
    a0001548:	c398                	sw	a4,0(a5)
	DDR_DLY_DQ30OUT = var;
    a000154a:	403007b7          	lui	a5,0x40300
    a000154e:	09878793          	addi	a5,a5,152 # 40300098 <_ftext+0x40300098>
    a0001552:	fec42703          	lw	a4,-20(s0)
    a0001556:	8b3d                	andi	a4,a4,15
    a0001558:	0ff77713          	andi	a4,a4,255
    a000155c:	8b3d                	andi	a4,a4,15
    a000155e:	0187171b          	slliw	a4,a4,0x18
    a0001562:	4390                	lw	a2,0(a5)
    a0001564:	f10006b7          	lui	a3,0xf1000
    a0001568:	16fd                	addi	a3,a3,-1
    a000156a:	8ef1                	and	a3,a3,a2
    a000156c:	8f55                	or	a4,a4,a3
    a000156e:	c398                	sw	a4,0(a5)
	DDR_DLY_DQ29OUT = var;
    a0001570:	403007b7          	lui	a5,0x40300
    a0001574:	09878793          	addi	a5,a5,152 # 40300098 <_ftext+0x40300098>
    a0001578:	fec42703          	lw	a4,-20(s0)
    a000157c:	8b3d                	andi	a4,a4,15
    a000157e:	0ff77713          	andi	a4,a4,255
    a0001582:	8b3d                	andi	a4,a4,15
    a0001584:	0147171b          	slliw	a4,a4,0x14
    a0001588:	4390                	lw	a2,0(a5)
    a000158a:	ff1006b7          	lui	a3,0xff100
    a000158e:	16fd                	addi	a3,a3,-1
    a0001590:	8ef1                	and	a3,a3,a2
    a0001592:	8f55                	or	a4,a4,a3
    a0001594:	c398                	sw	a4,0(a5)
	DDR_DLY_DQ28OUT = var;
    a0001596:	403007b7          	lui	a5,0x40300
    a000159a:	09878793          	addi	a5,a5,152 # 40300098 <_ftext+0x40300098>
    a000159e:	fec42703          	lw	a4,-20(s0)
    a00015a2:	8b3d                	andi	a4,a4,15
    a00015a4:	0ff77713          	andi	a4,a4,255
    a00015a8:	8b3d                	andi	a4,a4,15
    a00015aa:	0107171b          	slliw	a4,a4,0x10
    a00015ae:	4390                	lw	a2,0(a5)
    a00015b0:	fff106b7          	lui	a3,0xfff10
    a00015b4:	16fd                	addi	a3,a3,-1
    a00015b6:	8ef1                	and	a3,a3,a2
    a00015b8:	8f55                	or	a4,a4,a3
    a00015ba:	c398                	sw	a4,0(a5)
	DDR_DLY_DQ27OUT = var;
    a00015bc:	403007b7          	lui	a5,0x40300
    a00015c0:	09878793          	addi	a5,a5,152 # 40300098 <_ftext+0x40300098>
    a00015c4:	fec42703          	lw	a4,-20(s0)
    a00015c8:	8b3d                	andi	a4,a4,15
    a00015ca:	0ff77713          	andi	a4,a4,255
    a00015ce:	8b3d                	andi	a4,a4,15
    a00015d0:	00c7171b          	slliw	a4,a4,0xc
    a00015d4:	4390                	lw	a2,0(a5)
    a00015d6:	76c5                	lui	a3,0xffff1
    a00015d8:	16fd                	addi	a3,a3,-1
    a00015da:	8ef1                	and	a3,a3,a2
    a00015dc:	8f55                	or	a4,a4,a3
    a00015de:	c398                	sw	a4,0(a5)
	DDR_DLY_DQ26OUT = var;
    a00015e0:	403007b7          	lui	a5,0x40300
    a00015e4:	09878793          	addi	a5,a5,152 # 40300098 <_ftext+0x40300098>
    a00015e8:	fec42703          	lw	a4,-20(s0)
    a00015ec:	8b3d                	andi	a4,a4,15
    a00015ee:	0ff77713          	andi	a4,a4,255
    a00015f2:	8b3d                	andi	a4,a4,15
    a00015f4:	0087171b          	slliw	a4,a4,0x8
    a00015f8:	4390                	lw	a2,0(a5)
    a00015fa:	76fd                	lui	a3,0xfffff
    a00015fc:	0ff68693          	addi	a3,a3,255 # fffffffffffff0ff <__bss_e+0xffffffff5fff5e3f>
    a0001600:	8ef1                	and	a3,a3,a2
    a0001602:	8f55                	or	a4,a4,a3
    a0001604:	c398                	sw	a4,0(a5)
	DDR_DLY_DQ25OUT = var;
    a0001606:	403007b7          	lui	a5,0x40300
    a000160a:	09878793          	addi	a5,a5,152 # 40300098 <_ftext+0x40300098>
    a000160e:	fec42703          	lw	a4,-20(s0)
    a0001612:	8b3d                	andi	a4,a4,15
    a0001614:	0ff77713          	andi	a4,a4,255
    a0001618:	8b3d                	andi	a4,a4,15
    a000161a:	0047171b          	slliw	a4,a4,0x4
    a000161e:	4394                	lw	a3,0(a5)
    a0001620:	f0f6f693          	andi	a3,a3,-241
    a0001624:	8f55                	or	a4,a4,a3
    a0001626:	c398                	sw	a4,0(a5)
	DDR_DLY_DQ24OUT = var;
    a0001628:	403007b7          	lui	a5,0x40300
    a000162c:	09878793          	addi	a5,a5,152 # 40300098 <_ftext+0x40300098>
    a0001630:	fec42703          	lw	a4,-20(s0)
    a0001634:	8b3d                	andi	a4,a4,15
    a0001636:	0ff77713          	andi	a4,a4,255
    a000163a:	00f77613          	andi	a2,a4,15
    a000163e:	4398                	lw	a4,0(a5)
    a0001640:	9b41                	andi	a4,a4,-16
    a0001642:	86ba                	mv	a3,a4
    a0001644:	8732                	mv	a4,a2
    a0001646:	8f55                	or	a4,a4,a3
    a0001648:	c398                	sw	a4,0(a5)
}
    a000164a:	0001                	nop
    a000164c:	6462                	ld	s0,24(sp)
    a000164e:	6105                	addi	sp,sp,32
    a0001650:	8082                	ret

00000000a0001652 <DqOutDly>:
void DqOutDly(UINT var)
{
    a0001652:	1101                	addi	sp,sp,-32
    a0001654:	ec06                	sd	ra,24(sp)
    a0001656:	e822                	sd	s0,16(sp)
    a0001658:	1000                	addi	s0,sp,32
    a000165a:	87aa                	mv	a5,a0
    a000165c:	fef42623          	sw	a5,-20(s0)
	DqG0OutDly(var);
    a0001660:	fec42783          	lw	a5,-20(s0)
    a0001664:	853e                	mv	a0,a5
    a0001666:	b0dff0ef          	jal	ra,a0001172 <DqG0OutDly>
	DqG1OutDly(var);
    a000166a:	fec42783          	lw	a5,-20(s0)
    a000166e:	853e                	mv	a0,a5
    a0001670:	c3bff0ef          	jal	ra,a00012aa <DqG1OutDly>
	DqG2OutDly(var);
    a0001674:	fec42783          	lw	a5,-20(s0)
    a0001678:	853e                	mv	a0,a5
    a000167a:	d69ff0ef          	jal	ra,a00013e2 <DqG2OutDly>
	DqG3OutDly(var);
    a000167e:	fec42783          	lw	a5,-20(s0)
    a0001682:	853e                	mv	a0,a5
    a0001684:	e97ff0ef          	jal	ra,a000151a <DqG3OutDly>
}
    a0001688:	0001                	nop
    a000168a:	60e2                	ld	ra,24(sp)
    a000168c:	6442                	ld	s0,16(sp)
    a000168e:	6105                	addi	sp,sp,32
    a0001690:	8082                	ret

00000000a0001692 <DmOutDly>:
void DmOutDly(UINT var)
{
    a0001692:	1101                	addi	sp,sp,-32
    a0001694:	ec22                	sd	s0,24(sp)
    a0001696:	1000                	addi	s0,sp,32
    a0001698:	87aa                	mv	a5,a0
    a000169a:	fef42623          	sw	a5,-20(s0)
	DDR_DLY_DM0OUT  = var;
    a000169e:	403007b7          	lui	a5,0x40300
    a00016a2:	06078793          	addi	a5,a5,96 # 40300060 <_ftext+0x40300060>
    a00016a6:	fec42703          	lw	a4,-20(s0)
    a00016aa:	8b3d                	andi	a4,a4,15
    a00016ac:	0ff77713          	andi	a4,a4,255
    a00016b0:	00f77613          	andi	a2,a4,15
    a00016b4:	4398                	lw	a4,0(a5)
    a00016b6:	9b41                	andi	a4,a4,-16
    a00016b8:	86ba                	mv	a3,a4
    a00016ba:	8732                	mv	a4,a2
    a00016bc:	8f55                	or	a4,a4,a3
    a00016be:	c398                	sw	a4,0(a5)
	DDR_DLY_DM1OUT  = var;
    a00016c0:	403007b7          	lui	a5,0x40300
    a00016c4:	07078793          	addi	a5,a5,112 # 40300070 <_ftext+0x40300070>
    a00016c8:	fec42703          	lw	a4,-20(s0)
    a00016cc:	8b3d                	andi	a4,a4,15
    a00016ce:	0ff77713          	andi	a4,a4,255
    a00016d2:	00f77613          	andi	a2,a4,15
    a00016d6:	4398                	lw	a4,0(a5)
    a00016d8:	9b41                	andi	a4,a4,-16
    a00016da:	86ba                	mv	a3,a4
    a00016dc:	8732                	mv	a4,a2
    a00016de:	8f55                	or	a4,a4,a3
    a00016e0:	c398                	sw	a4,0(a5)
	DDR_DLY_DM2OUT  = var;
    a00016e2:	403007b7          	lui	a5,0x40300
    a00016e6:	08078793          	addi	a5,a5,128 # 40300080 <_ftext+0x40300080>
    a00016ea:	fec42703          	lw	a4,-20(s0)
    a00016ee:	8b3d                	andi	a4,a4,15
    a00016f0:	0ff77713          	andi	a4,a4,255
    a00016f4:	00f77613          	andi	a2,a4,15
    a00016f8:	4398                	lw	a4,0(a5)
    a00016fa:	9b41                	andi	a4,a4,-16
    a00016fc:	86ba                	mv	a3,a4
    a00016fe:	8732                	mv	a4,a2
    a0001700:	8f55                	or	a4,a4,a3
    a0001702:	c398                	sw	a4,0(a5)
	DDR_DLY_DM3OUT  = var;
    a0001704:	403007b7          	lui	a5,0x40300
    a0001708:	09078793          	addi	a5,a5,144 # 40300090 <_ftext+0x40300090>
    a000170c:	fec42703          	lw	a4,-20(s0)
    a0001710:	8b3d                	andi	a4,a4,15
    a0001712:	0ff77713          	andi	a4,a4,255
    a0001716:	00f77613          	andi	a2,a4,15
    a000171a:	4398                	lw	a4,0(a5)
    a000171c:	9b41                	andi	a4,a4,-16
    a000171e:	86ba                	mv	a3,a4
    a0001720:	8732                	mv	a4,a2
    a0001722:	8f55                	or	a4,a4,a3
    a0001724:	c398                	sw	a4,0(a5)
}
    a0001726:	0001                	nop
    a0001728:	6462                	ld	s0,24(sp)
    a000172a:	6105                	addi	sp,sp,32
    a000172c:	8082                	ret

00000000a000172e <CaOutDly>:
void CaOutDly(int var)
{
    a000172e:	1101                	addi	sp,sp,-32
    a0001730:	ec22                	sd	s0,24(sp)
    a0001732:	1000                	addi	s0,sp,32
    a0001734:	87aa                	mv	a5,a0
    a0001736:	fef42623          	sw	a5,-20(s0)
	DDR_DLY_CA9OUT  = var;
    a000173a:	403007b7          	lui	a5,0x40300
    a000173e:	05078793          	addi	a5,a5,80 # 40300050 <_ftext+0x40300050>
    a0001742:	fec42703          	lw	a4,-20(s0)
    a0001746:	8b3d                	andi	a4,a4,15
    a0001748:	0ff77713          	andi	a4,a4,255
    a000174c:	8b3d                	andi	a4,a4,15
    a000174e:	0047171b          	slliw	a4,a4,0x4
    a0001752:	4394                	lw	a3,0(a5)
    a0001754:	f0f6f693          	andi	a3,a3,-241
    a0001758:	8f55                	or	a4,a4,a3
    a000175a:	c398                	sw	a4,0(a5)
	DDR_DLY_CA8OUT  = var;
    a000175c:	403007b7          	lui	a5,0x40300
    a0001760:	05078793          	addi	a5,a5,80 # 40300050 <_ftext+0x40300050>
    a0001764:	fec42703          	lw	a4,-20(s0)
    a0001768:	8b3d                	andi	a4,a4,15
    a000176a:	0ff77713          	andi	a4,a4,255
    a000176e:	00f77613          	andi	a2,a4,15
    a0001772:	4398                	lw	a4,0(a5)
    a0001774:	9b41                	andi	a4,a4,-16
    a0001776:	86ba                	mv	a3,a4
    a0001778:	8732                	mv	a4,a2
    a000177a:	8f55                	or	a4,a4,a3
    a000177c:	c398                	sw	a4,0(a5)
	DDR_DLY_CA7OUT  = var;
    a000177e:	403007b7          	lui	a5,0x40300
    a0001782:	05878793          	addi	a5,a5,88 # 40300058 <_ftext+0x40300058>
    a0001786:	fec42703          	lw	a4,-20(s0)
    a000178a:	8b3d                	andi	a4,a4,15
    a000178c:	0ff77713          	andi	a4,a4,255
    a0001790:	01c7171b          	slliw	a4,a4,0x1c
    a0001794:	4390                	lw	a2,0(a5)
    a0001796:	100006b7          	lui	a3,0x10000
    a000179a:	16fd                	addi	a3,a3,-1
    a000179c:	8ef1                	and	a3,a3,a2
    a000179e:	8f55                	or	a4,a4,a3
    a00017a0:	c398                	sw	a4,0(a5)
	DDR_DLY_CA6OUT  = var;
    a00017a2:	403007b7          	lui	a5,0x40300
    a00017a6:	05878793          	addi	a5,a5,88 # 40300058 <_ftext+0x40300058>
    a00017aa:	fec42703          	lw	a4,-20(s0)
    a00017ae:	8b3d                	andi	a4,a4,15
    a00017b0:	0ff77713          	andi	a4,a4,255
    a00017b4:	8b3d                	andi	a4,a4,15
    a00017b6:	0187171b          	slliw	a4,a4,0x18
    a00017ba:	4390                	lw	a2,0(a5)
    a00017bc:	f10006b7          	lui	a3,0xf1000
    a00017c0:	16fd                	addi	a3,a3,-1
    a00017c2:	8ef1                	and	a3,a3,a2
    a00017c4:	8f55                	or	a4,a4,a3
    a00017c6:	c398                	sw	a4,0(a5)
	DDR_DLY_CA5OUT  = var;
    a00017c8:	403007b7          	lui	a5,0x40300
    a00017cc:	05878793          	addi	a5,a5,88 # 40300058 <_ftext+0x40300058>
    a00017d0:	fec42703          	lw	a4,-20(s0)
    a00017d4:	8b3d                	andi	a4,a4,15
    a00017d6:	0ff77713          	andi	a4,a4,255
    a00017da:	8b3d                	andi	a4,a4,15
    a00017dc:	0147171b          	slliw	a4,a4,0x14
    a00017e0:	4390                	lw	a2,0(a5)
    a00017e2:	ff1006b7          	lui	a3,0xff100
    a00017e6:	16fd                	addi	a3,a3,-1
    a00017e8:	8ef1                	and	a3,a3,a2
    a00017ea:	8f55                	or	a4,a4,a3
    a00017ec:	c398                	sw	a4,0(a5)
	DDR_DLY_CA4OUT  = var;
    a00017ee:	403007b7          	lui	a5,0x40300
    a00017f2:	05878793          	addi	a5,a5,88 # 40300058 <_ftext+0x40300058>
    a00017f6:	fec42703          	lw	a4,-20(s0)
    a00017fa:	8b3d                	andi	a4,a4,15
    a00017fc:	0ff77713          	andi	a4,a4,255
    a0001800:	8b3d                	andi	a4,a4,15
    a0001802:	0107171b          	slliw	a4,a4,0x10
    a0001806:	4390                	lw	a2,0(a5)
    a0001808:	fff106b7          	lui	a3,0xfff10
    a000180c:	16fd                	addi	a3,a3,-1
    a000180e:	8ef1                	and	a3,a3,a2
    a0001810:	8f55                	or	a4,a4,a3
    a0001812:	c398                	sw	a4,0(a5)
	DDR_DLY_CA3OUT  = var;
    a0001814:	403007b7          	lui	a5,0x40300
    a0001818:	05878793          	addi	a5,a5,88 # 40300058 <_ftext+0x40300058>
    a000181c:	fec42703          	lw	a4,-20(s0)
    a0001820:	8b3d                	andi	a4,a4,15
    a0001822:	0ff77713          	andi	a4,a4,255
    a0001826:	8b3d                	andi	a4,a4,15
    a0001828:	00c7171b          	slliw	a4,a4,0xc
    a000182c:	4390                	lw	a2,0(a5)
    a000182e:	76c5                	lui	a3,0xffff1
    a0001830:	16fd                	addi	a3,a3,-1
    a0001832:	8ef1                	and	a3,a3,a2
    a0001834:	8f55                	or	a4,a4,a3
    a0001836:	c398                	sw	a4,0(a5)
	DDR_DLY_CA2OUT  = var;
    a0001838:	403007b7          	lui	a5,0x40300
    a000183c:	05878793          	addi	a5,a5,88 # 40300058 <_ftext+0x40300058>
    a0001840:	fec42703          	lw	a4,-20(s0)
    a0001844:	8b3d                	andi	a4,a4,15
    a0001846:	0ff77713          	andi	a4,a4,255
    a000184a:	8b3d                	andi	a4,a4,15
    a000184c:	0087171b          	slliw	a4,a4,0x8
    a0001850:	4390                	lw	a2,0(a5)
    a0001852:	76fd                	lui	a3,0xfffff
    a0001854:	0ff68693          	addi	a3,a3,255 # fffffffffffff0ff <__bss_e+0xffffffff5fff5e3f>
    a0001858:	8ef1                	and	a3,a3,a2
    a000185a:	8f55                	or	a4,a4,a3
    a000185c:	c398                	sw	a4,0(a5)
	DDR_DLY_CA1OUT  = var;
    a000185e:	403007b7          	lui	a5,0x40300
    a0001862:	05878793          	addi	a5,a5,88 # 40300058 <_ftext+0x40300058>
    a0001866:	fec42703          	lw	a4,-20(s0)
    a000186a:	8b3d                	andi	a4,a4,15
    a000186c:	0ff77713          	andi	a4,a4,255
    a0001870:	8b3d                	andi	a4,a4,15
    a0001872:	0047171b          	slliw	a4,a4,0x4
    a0001876:	4394                	lw	a3,0(a5)
    a0001878:	f0f6f693          	andi	a3,a3,-241
    a000187c:	8f55                	or	a4,a4,a3
    a000187e:	c398                	sw	a4,0(a5)
	DDR_DLY_CA0OUT  = var;
    a0001880:	403007b7          	lui	a5,0x40300
    a0001884:	05878793          	addi	a5,a5,88 # 40300058 <_ftext+0x40300058>
    a0001888:	fec42703          	lw	a4,-20(s0)
    a000188c:	8b3d                	andi	a4,a4,15
    a000188e:	0ff77713          	andi	a4,a4,255
    a0001892:	00f77613          	andi	a2,a4,15
    a0001896:	4398                	lw	a4,0(a5)
    a0001898:	9b41                	andi	a4,a4,-16
    a000189a:	86ba                	mv	a3,a4
    a000189c:	8732                	mv	a4,a2
    a000189e:	8f55                	or	a4,a4,a3
    a00018a0:	c398                	sw	a4,0(a5)
}
    a00018a2:	0001                	nop
    a00018a4:	6462                	ld	s0,24(sp)
    a00018a6:	6105                	addi	sp,sp,32
    a00018a8:	8082                	ret

00000000a00018aa <ddr_cal_test>:

char ddr_cal_test()
{
    a00018aa:	1101                	addi	sp,sp,-32
    a00018ac:	ec22                	sd	s0,24(sp)
    a00018ae:	1000                	addi	s0,sp,32
	char result = 0;
    a00018b0:	fe0407a3          	sb	zero,-17(s0)
	DDR_MR_ADR = 32;
    a00018b4:	403007b7          	lui	a5,0x40300
    a00018b8:	02000713          	li	a4,32
    a00018bc:	00e781a3          	sb	a4,3(a5) # 40300003 <_ftext+0x40300003>
	DDR_MR_WE  = 0;
    a00018c0:	403007b7          	lui	a5,0x40300
    a00018c4:	4398                	lw	a4,0(a5)
    a00018c6:	9b75                	andi	a4,a4,-3
    a00018c8:	c398                	sw	a4,0(a5)
	DDR_MR_REQ = 1;
    a00018ca:	403007b7          	lui	a5,0x40300
    a00018ce:	4398                	lw	a4,0(a5)
    a00018d0:	00176713          	ori	a4,a4,1
    a00018d4:	c398                	sw	a4,0(a5)
	while(DDR_MR_REQ);
    a00018d6:	0001                	nop
    a00018d8:	403007b7          	lui	a5,0x40300
    a00018dc:	439c                	lw	a5,0(a5)
    a00018de:	8b85                	andi	a5,a5,1
    a00018e0:	0ff7f793          	andi	a5,a5,255
    a00018e4:	fbf5                	bnez	a5,a00018d8 <ddr_cal_test+0x2e>
	if(DDR_MR_RDDAT0!=0x00000000) result++;
    a00018e6:	403007b7          	lui	a5,0x40300
    a00018ea:	03078793          	addi	a5,a5,48 # 40300030 <_ftext+0x40300030>
    a00018ee:	439c                	lw	a5,0(a5)
    a00018f0:	2781                	sext.w	a5,a5
    a00018f2:	c791                	beqz	a5,a00018fe <ddr_cal_test+0x54>
    a00018f4:	fef44783          	lbu	a5,-17(s0)
    a00018f8:	2785                	addiw	a5,a5,1
    a00018fa:	fef407a3          	sb	a5,-17(s0)
	if(DDR_MR_RDDAT1!=0x00000000) result++;
    a00018fe:	403007b7          	lui	a5,0x40300
    a0001902:	03878793          	addi	a5,a5,56 # 40300038 <_ftext+0x40300038>
    a0001906:	439c                	lw	a5,0(a5)
    a0001908:	2781                	sext.w	a5,a5
    a000190a:	c791                	beqz	a5,a0001916 <ddr_cal_test+0x6c>
    a000190c:	fef44783          	lbu	a5,-17(s0)
    a0001910:	2785                	addiw	a5,a5,1
    a0001912:	fef407a3          	sb	a5,-17(s0)
	if(DDR_MR_RDDAT2!=0xffffffff) result++;
    a0001916:	403007b7          	lui	a5,0x40300
    a000191a:	04078793          	addi	a5,a5,64 # 40300040 <_ftext+0x40300040>
    a000191e:	439c                	lw	a5,0(a5)
    a0001920:	2781                	sext.w	a5,a5
    a0001922:	873e                	mv	a4,a5
    a0001924:	57fd                	li	a5,-1
    a0001926:	00f70763          	beq	a4,a5,a0001934 <ddr_cal_test+0x8a>
    a000192a:	fef44783          	lbu	a5,-17(s0)
    a000192e:	2785                	addiw	a5,a5,1
    a0001930:	fef407a3          	sb	a5,-17(s0)
	if(DDR_MR_RDDAT3!=0xffffffff) result++;
    a0001934:	403007b7          	lui	a5,0x40300
    a0001938:	04878793          	addi	a5,a5,72 # 40300048 <_ftext+0x40300048>
    a000193c:	439c                	lw	a5,0(a5)
    a000193e:	2781                	sext.w	a5,a5
    a0001940:	873e                	mv	a4,a5
    a0001942:	57fd                	li	a5,-1
    a0001944:	00f70763          	beq	a4,a5,a0001952 <ddr_cal_test+0xa8>
    a0001948:	fef44783          	lbu	a5,-17(s0)
    a000194c:	2785                	addiw	a5,a5,1
    a000194e:	fef407a3          	sb	a5,-17(s0)
	//if(result>0) printf("%08x %08x %08x %08x ", DDR_MR_RDDAT0,DDR_MR_RDDAT1,DDR_MR_RDDAT2,DDR_MR_RDDAT3);
	DDR_MR_ADR = 40;
    a0001952:	403007b7          	lui	a5,0x40300
    a0001956:	02800713          	li	a4,40
    a000195a:	00e781a3          	sb	a4,3(a5) # 40300003 <_ftext+0x40300003>
	DDR_MR_WE  = 0;
    a000195e:	403007b7          	lui	a5,0x40300
    a0001962:	4398                	lw	a4,0(a5)
    a0001964:	9b75                	andi	a4,a4,-3
    a0001966:	c398                	sw	a4,0(a5)
	DDR_MR_REQ = 1;
    a0001968:	403007b7          	lui	a5,0x40300
    a000196c:	4398                	lw	a4,0(a5)
    a000196e:	00176713          	ori	a4,a4,1
    a0001972:	c398                	sw	a4,0(a5)
	while(DDR_MR_REQ);
    a0001974:	0001                	nop
    a0001976:	403007b7          	lui	a5,0x40300
    a000197a:	439c                	lw	a5,0(a5)
    a000197c:	8b85                	andi	a5,a5,1
    a000197e:	0ff7f793          	andi	a5,a5,255
    a0001982:	fbf5                	bnez	a5,a0001976 <ddr_cal_test+0xcc>
	if(DDR_MR_RDDAT0!=0xffffffff) result++;
    a0001984:	403007b7          	lui	a5,0x40300
    a0001988:	03078793          	addi	a5,a5,48 # 40300030 <_ftext+0x40300030>
    a000198c:	439c                	lw	a5,0(a5)
    a000198e:	2781                	sext.w	a5,a5
    a0001990:	873e                	mv	a4,a5
    a0001992:	57fd                	li	a5,-1
    a0001994:	00f70763          	beq	a4,a5,a00019a2 <ddr_cal_test+0xf8>
    a0001998:	fef44783          	lbu	a5,-17(s0)
    a000199c:	2785                	addiw	a5,a5,1
    a000199e:	fef407a3          	sb	a5,-17(s0)
	if(DDR_MR_RDDAT1!=0x00000000) result++;
    a00019a2:	403007b7          	lui	a5,0x40300
    a00019a6:	03878793          	addi	a5,a5,56 # 40300038 <_ftext+0x40300038>
    a00019aa:	439c                	lw	a5,0(a5)
    a00019ac:	2781                	sext.w	a5,a5
    a00019ae:	c791                	beqz	a5,a00019ba <ddr_cal_test+0x110>
    a00019b0:	fef44783          	lbu	a5,-17(s0)
    a00019b4:	2785                	addiw	a5,a5,1
    a00019b6:	fef407a3          	sb	a5,-17(s0)
	if(DDR_MR_RDDAT2!=0xffffffff) result++;
    a00019ba:	403007b7          	lui	a5,0x40300
    a00019be:	04078793          	addi	a5,a5,64 # 40300040 <_ftext+0x40300040>
    a00019c2:	439c                	lw	a5,0(a5)
    a00019c4:	2781                	sext.w	a5,a5
    a00019c6:	873e                	mv	a4,a5
    a00019c8:	57fd                	li	a5,-1
    a00019ca:	00f70763          	beq	a4,a5,a00019d8 <ddr_cal_test+0x12e>
    a00019ce:	fef44783          	lbu	a5,-17(s0)
    a00019d2:	2785                	addiw	a5,a5,1
    a00019d4:	fef407a3          	sb	a5,-17(s0)
	if(DDR_MR_RDDAT3!=0x00000000) result++;
    a00019d8:	403007b7          	lui	a5,0x40300
    a00019dc:	04878793          	addi	a5,a5,72 # 40300048 <_ftext+0x40300048>
    a00019e0:	439c                	lw	a5,0(a5)
    a00019e2:	2781                	sext.w	a5,a5
    a00019e4:	c791                	beqz	a5,a00019f0 <ddr_cal_test+0x146>
    a00019e6:	fef44783          	lbu	a5,-17(s0)
    a00019ea:	2785                	addiw	a5,a5,1
    a00019ec:	fef407a3          	sb	a5,-17(s0)
	//if(result>0) printf("%08x %08x %08x %08x\n", DDR_MR_RDDAT0,DDR_MR_RDDAT1,DDR_MR_RDDAT2,DDR_MR_RDDAT3);
	DDR_MR_ADR = 32;
    a00019f0:	403007b7          	lui	a5,0x40300
    a00019f4:	02000713          	li	a4,32
    a00019f8:	00e781a3          	sb	a4,3(a5) # 40300003 <_ftext+0x40300003>
	DDR_MR_WE  = 0;
    a00019fc:	403007b7          	lui	a5,0x40300
    a0001a00:	4398                	lw	a4,0(a5)
    a0001a02:	9b75                	andi	a4,a4,-3
    a0001a04:	c398                	sw	a4,0(a5)
	DDR_MR_REQ = 1;
    a0001a06:	403007b7          	lui	a5,0x40300
    a0001a0a:	4398                	lw	a4,0(a5)
    a0001a0c:	00176713          	ori	a4,a4,1
    a0001a10:	c398                	sw	a4,0(a5)
	while(DDR_MR_REQ);
    a0001a12:	0001                	nop
    a0001a14:	403007b7          	lui	a5,0x40300
    a0001a18:	439c                	lw	a5,0(a5)
    a0001a1a:	8b85                	andi	a5,a5,1
    a0001a1c:	0ff7f793          	andi	a5,a5,255
    a0001a20:	fbf5                	bnez	a5,a0001a14 <ddr_cal_test+0x16a>
	if(DDR_MR_RDDAT0!=0x00000000) result++;
    a0001a22:	403007b7          	lui	a5,0x40300
    a0001a26:	03078793          	addi	a5,a5,48 # 40300030 <_ftext+0x40300030>
    a0001a2a:	439c                	lw	a5,0(a5)
    a0001a2c:	2781                	sext.w	a5,a5
    a0001a2e:	c791                	beqz	a5,a0001a3a <ddr_cal_test+0x190>
    a0001a30:	fef44783          	lbu	a5,-17(s0)
    a0001a34:	2785                	addiw	a5,a5,1
    a0001a36:	fef407a3          	sb	a5,-17(s0)
	if(DDR_MR_RDDAT1!=0x00000000) result++;
    a0001a3a:	403007b7          	lui	a5,0x40300
    a0001a3e:	03878793          	addi	a5,a5,56 # 40300038 <_ftext+0x40300038>
    a0001a42:	439c                	lw	a5,0(a5)
    a0001a44:	2781                	sext.w	a5,a5
    a0001a46:	c791                	beqz	a5,a0001a52 <ddr_cal_test+0x1a8>
    a0001a48:	fef44783          	lbu	a5,-17(s0)
    a0001a4c:	2785                	addiw	a5,a5,1
    a0001a4e:	fef407a3          	sb	a5,-17(s0)
	if(DDR_MR_RDDAT2!=0xffffffff) result++;
    a0001a52:	403007b7          	lui	a5,0x40300
    a0001a56:	04078793          	addi	a5,a5,64 # 40300040 <_ftext+0x40300040>
    a0001a5a:	439c                	lw	a5,0(a5)
    a0001a5c:	2781                	sext.w	a5,a5
    a0001a5e:	873e                	mv	a4,a5
    a0001a60:	57fd                	li	a5,-1
    a0001a62:	00f70763          	beq	a4,a5,a0001a70 <ddr_cal_test+0x1c6>
    a0001a66:	fef44783          	lbu	a5,-17(s0)
    a0001a6a:	2785                	addiw	a5,a5,1
    a0001a6c:	fef407a3          	sb	a5,-17(s0)
	if(DDR_MR_RDDAT3!=0xffffffff) result++;
    a0001a70:	403007b7          	lui	a5,0x40300
    a0001a74:	04878793          	addi	a5,a5,72 # 40300048 <_ftext+0x40300048>
    a0001a78:	439c                	lw	a5,0(a5)
    a0001a7a:	2781                	sext.w	a5,a5
    a0001a7c:	873e                	mv	a4,a5
    a0001a7e:	57fd                	li	a5,-1
    a0001a80:	00f70763          	beq	a4,a5,a0001a8e <ddr_cal_test+0x1e4>
    a0001a84:	fef44783          	lbu	a5,-17(s0)
    a0001a88:	2785                	addiw	a5,a5,1
    a0001a8a:	fef407a3          	sb	a5,-17(s0)
	//if(result>0) printf("%08x %08x %08x %08x ", DDR_MR_RDDAT0,DDR_MR_RDDAT1,DDR_MR_RDDAT2,DDR_MR_RDDAT3);
	DDR_MR_ADR = 40;
    a0001a8e:	403007b7          	lui	a5,0x40300
    a0001a92:	02800713          	li	a4,40
    a0001a96:	00e781a3          	sb	a4,3(a5) # 40300003 <_ftext+0x40300003>
	DDR_MR_WE  = 0;
    a0001a9a:	403007b7          	lui	a5,0x40300
    a0001a9e:	4398                	lw	a4,0(a5)
    a0001aa0:	9b75                	andi	a4,a4,-3
    a0001aa2:	c398                	sw	a4,0(a5)
	DDR_MR_REQ = 1;
    a0001aa4:	403007b7          	lui	a5,0x40300
    a0001aa8:	4398                	lw	a4,0(a5)
    a0001aaa:	00176713          	ori	a4,a4,1
    a0001aae:	c398                	sw	a4,0(a5)
	while(DDR_MR_REQ);
    a0001ab0:	0001                	nop
    a0001ab2:	403007b7          	lui	a5,0x40300
    a0001ab6:	439c                	lw	a5,0(a5)
    a0001ab8:	8b85                	andi	a5,a5,1
    a0001aba:	0ff7f793          	andi	a5,a5,255
    a0001abe:	fbf5                	bnez	a5,a0001ab2 <ddr_cal_test+0x208>
	if(DDR_MR_RDDAT0!=0xffffffff) result++;
    a0001ac0:	403007b7          	lui	a5,0x40300
    a0001ac4:	03078793          	addi	a5,a5,48 # 40300030 <_ftext+0x40300030>
    a0001ac8:	439c                	lw	a5,0(a5)
    a0001aca:	2781                	sext.w	a5,a5
    a0001acc:	873e                	mv	a4,a5
    a0001ace:	57fd                	li	a5,-1
    a0001ad0:	00f70763          	beq	a4,a5,a0001ade <ddr_cal_test+0x234>
    a0001ad4:	fef44783          	lbu	a5,-17(s0)
    a0001ad8:	2785                	addiw	a5,a5,1
    a0001ada:	fef407a3          	sb	a5,-17(s0)
	if(DDR_MR_RDDAT1!=0x00000000) result++;
    a0001ade:	403007b7          	lui	a5,0x40300
    a0001ae2:	03878793          	addi	a5,a5,56 # 40300038 <_ftext+0x40300038>
    a0001ae6:	439c                	lw	a5,0(a5)
    a0001ae8:	2781                	sext.w	a5,a5
    a0001aea:	c791                	beqz	a5,a0001af6 <ddr_cal_test+0x24c>
    a0001aec:	fef44783          	lbu	a5,-17(s0)
    a0001af0:	2785                	addiw	a5,a5,1
    a0001af2:	fef407a3          	sb	a5,-17(s0)
	if(DDR_MR_RDDAT2!=0xffffffff) result++;
    a0001af6:	403007b7          	lui	a5,0x40300
    a0001afa:	04078793          	addi	a5,a5,64 # 40300040 <_ftext+0x40300040>
    a0001afe:	439c                	lw	a5,0(a5)
    a0001b00:	2781                	sext.w	a5,a5
    a0001b02:	873e                	mv	a4,a5
    a0001b04:	57fd                	li	a5,-1
    a0001b06:	00f70763          	beq	a4,a5,a0001b14 <ddr_cal_test+0x26a>
    a0001b0a:	fef44783          	lbu	a5,-17(s0)
    a0001b0e:	2785                	addiw	a5,a5,1
    a0001b10:	fef407a3          	sb	a5,-17(s0)
	if(DDR_MR_RDDAT3!=0x00000000) result++;
    a0001b14:	403007b7          	lui	a5,0x40300
    a0001b18:	04878793          	addi	a5,a5,72 # 40300048 <_ftext+0x40300048>
    a0001b1c:	439c                	lw	a5,0(a5)
    a0001b1e:	2781                	sext.w	a5,a5
    a0001b20:	c791                	beqz	a5,a0001b2c <ddr_cal_test+0x282>
    a0001b22:	fef44783          	lbu	a5,-17(s0)
    a0001b26:	2785                	addiw	a5,a5,1
    a0001b28:	fef407a3          	sb	a5,-17(s0)
	//if(result>0) printf("%08x %08x %08x %08x\n", DDR_MR_RDDAT0,DDR_MR_RDDAT1,DDR_MR_RDDAT2,DDR_MR_RDDAT3);
	return result;
    a0001b2c:	fef44783          	lbu	a5,-17(s0)
}
    a0001b30:	853e                	mv	a0,a5
    a0001b32:	6462                	ld	s0,24(sp)
    a0001b34:	6105                	addi	sp,sp,32
    a0001b36:	8082                	ret

00000000a0001b38 <ddr_rw_test>:
char ddr_rw_test()
{
    a0001b38:	1101                	addi	sp,sp,-32
    a0001b3a:	ec06                	sd	ra,24(sp)
    a0001b3c:	e822                	sd	s0,16(sp)
    a0001b3e:	1000                	addi	s0,sp,32
	char result = 0;
    a0001b40:	fe0407a3          	sb	zero,-17(s0)
	UINT *ADDR_BASE = 0x80000000;
    a0001b44:	4785                	li	a5,1
    a0001b46:	07fe                	slli	a5,a5,0x1f
    a0001b48:	fef43023          	sd	a5,-32(s0)
	hwflush_dcache_range(0x80000000, 0x40);
    a0001b4c:	04000593          	li	a1,64
    a0001b50:	80000537          	lui	a0,0x80000
    a0001b54:	66a020ef          	jal	ra,a00041be <hwflush_dcache_range>
	ADDR_BASE[0] = 0xffffffff;
    a0001b58:	fe043783          	ld	a5,-32(s0)
    a0001b5c:	577d                	li	a4,-1
    a0001b5e:	c398                	sw	a4,0(a5)
	ADDR_BASE[1] = 0;
    a0001b60:	fe043783          	ld	a5,-32(s0)
    a0001b64:	0791                	addi	a5,a5,4
    a0001b66:	0007a023          	sw	zero,0(a5)
	ADDR_BASE[2] = 0xffffffff;
    a0001b6a:	fe043783          	ld	a5,-32(s0)
    a0001b6e:	07a1                	addi	a5,a5,8
    a0001b70:	577d                	li	a4,-1
    a0001b72:	c398                	sw	a4,0(a5)
	ADDR_BASE[3] = 0;
    a0001b74:	fe043783          	ld	a5,-32(s0)
    a0001b78:	07b1                	addi	a5,a5,12
    a0001b7a:	0007a023          	sw	zero,0(a5)
	ADDR_BASE[4] = 0xffffffff;
    a0001b7e:	fe043783          	ld	a5,-32(s0)
    a0001b82:	07c1                	addi	a5,a5,16
    a0001b84:	577d                	li	a4,-1
    a0001b86:	c398                	sw	a4,0(a5)
	ADDR_BASE[5] = 0xffffffff;
    a0001b88:	fe043783          	ld	a5,-32(s0)
    a0001b8c:	07d1                	addi	a5,a5,20
    a0001b8e:	577d                	li	a4,-1
    a0001b90:	c398                	sw	a4,0(a5)
	ADDR_BASE[6] = 0;
    a0001b92:	fe043783          	ld	a5,-32(s0)
    a0001b96:	07e1                	addi	a5,a5,24
    a0001b98:	0007a023          	sw	zero,0(a5)
	ADDR_BASE[7] = 0;
    a0001b9c:	fe043783          	ld	a5,-32(s0)
    a0001ba0:	07f1                	addi	a5,a5,28
    a0001ba2:	0007a023          	sw	zero,0(a5)
	ADDR_BASE[8] = 0xaaaaaaaa;
    a0001ba6:	fe043783          	ld	a5,-32(s0)
    a0001baa:	02078793          	addi	a5,a5,32
    a0001bae:	aaaab737          	lui	a4,0xaaaab
    a0001bb2:	aaa7071b          	addiw	a4,a4,-1366
    a0001bb6:	c398                	sw	a4,0(a5)
	ADDR_BASE[9] = 0x55555555;
    a0001bb8:	fe043783          	ld	a5,-32(s0)
    a0001bbc:	02478793          	addi	a5,a5,36
    a0001bc0:	55555737          	lui	a4,0x55555
    a0001bc4:	5557071b          	addiw	a4,a4,1365
    a0001bc8:	c398                	sw	a4,0(a5)
	ADDR_BASE[10] = 0xaaaaaaaa;
    a0001bca:	fe043783          	ld	a5,-32(s0)
    a0001bce:	02878793          	addi	a5,a5,40
    a0001bd2:	aaaab737          	lui	a4,0xaaaab
    a0001bd6:	aaa7071b          	addiw	a4,a4,-1366
    a0001bda:	c398                	sw	a4,0(a5)
	ADDR_BASE[11] = 0x55555555;
    a0001bdc:	fe043783          	ld	a5,-32(s0)
    a0001be0:	02c78793          	addi	a5,a5,44
    a0001be4:	55555737          	lui	a4,0x55555
    a0001be8:	5557071b          	addiw	a4,a4,1365
    a0001bec:	c398                	sw	a4,0(a5)
	ADDR_BASE[12] = 0x55555555;
    a0001bee:	fe043783          	ld	a5,-32(s0)
    a0001bf2:	03078793          	addi	a5,a5,48
    a0001bf6:	55555737          	lui	a4,0x55555
    a0001bfa:	5557071b          	addiw	a4,a4,1365
    a0001bfe:	c398                	sw	a4,0(a5)
	ADDR_BASE[13] = 0xaaaaaaaa;
    a0001c00:	fe043783          	ld	a5,-32(s0)
    a0001c04:	03478793          	addi	a5,a5,52
    a0001c08:	aaaab737          	lui	a4,0xaaaab
    a0001c0c:	aaa7071b          	addiw	a4,a4,-1366
    a0001c10:	c398                	sw	a4,0(a5)
	ADDR_BASE[14] = 0x55555555;
    a0001c12:	fe043783          	ld	a5,-32(s0)
    a0001c16:	03878793          	addi	a5,a5,56
    a0001c1a:	55555737          	lui	a4,0x55555
    a0001c1e:	5557071b          	addiw	a4,a4,1365
    a0001c22:	c398                	sw	a4,0(a5)
	ADDR_BASE[15] = 0xaaaaaaaa;
    a0001c24:	fe043783          	ld	a5,-32(s0)
    a0001c28:	03c78793          	addi	a5,a5,60
    a0001c2c:	aaaab737          	lui	a4,0xaaaab
    a0001c30:	aaa7071b          	addiw	a4,a4,-1366
    a0001c34:	c398                	sw	a4,0(a5)
	hwflush_dcache_range(0x80000000, 0x40);
    a0001c36:	04000593          	li	a1,64
    a0001c3a:	80000537          	lui	a0,0x80000
    a0001c3e:	580020ef          	jal	ra,a00041be <hwflush_dcache_range>
	if(ADDR_BASE[0]!=0xffffffff) result++;
    a0001c42:	fe043783          	ld	a5,-32(s0)
    a0001c46:	439c                	lw	a5,0(a5)
    a0001c48:	873e                	mv	a4,a5
    a0001c4a:	57fd                	li	a5,-1
    a0001c4c:	00f70763          	beq	a4,a5,a0001c5a <ddr_rw_test+0x122>
    a0001c50:	fef44783          	lbu	a5,-17(s0)
    a0001c54:	2785                	addiw	a5,a5,1
    a0001c56:	fef407a3          	sb	a5,-17(s0)
	if(ADDR_BASE[1]!=0x00000000) result++;
    a0001c5a:	fe043783          	ld	a5,-32(s0)
    a0001c5e:	0791                	addi	a5,a5,4
    a0001c60:	439c                	lw	a5,0(a5)
    a0001c62:	c791                	beqz	a5,a0001c6e <ddr_rw_test+0x136>
    a0001c64:	fef44783          	lbu	a5,-17(s0)
    a0001c68:	2785                	addiw	a5,a5,1
    a0001c6a:	fef407a3          	sb	a5,-17(s0)
	if(ADDR_BASE[2]!=0xffffffff) result++;
    a0001c6e:	fe043783          	ld	a5,-32(s0)
    a0001c72:	07a1                	addi	a5,a5,8
    a0001c74:	439c                	lw	a5,0(a5)
    a0001c76:	873e                	mv	a4,a5
    a0001c78:	57fd                	li	a5,-1
    a0001c7a:	00f70763          	beq	a4,a5,a0001c88 <ddr_rw_test+0x150>
    a0001c7e:	fef44783          	lbu	a5,-17(s0)
    a0001c82:	2785                	addiw	a5,a5,1
    a0001c84:	fef407a3          	sb	a5,-17(s0)
	if(ADDR_BASE[3]!=0x00000000) result++;
    a0001c88:	fe043783          	ld	a5,-32(s0)
    a0001c8c:	07b1                	addi	a5,a5,12
    a0001c8e:	439c                	lw	a5,0(a5)
    a0001c90:	c791                	beqz	a5,a0001c9c <ddr_rw_test+0x164>
    a0001c92:	fef44783          	lbu	a5,-17(s0)
    a0001c96:	2785                	addiw	a5,a5,1
    a0001c98:	fef407a3          	sb	a5,-17(s0)
	if(ADDR_BASE[4]!=0xffffffff) result++;
    a0001c9c:	fe043783          	ld	a5,-32(s0)
    a0001ca0:	07c1                	addi	a5,a5,16
    a0001ca2:	439c                	lw	a5,0(a5)
    a0001ca4:	873e                	mv	a4,a5
    a0001ca6:	57fd                	li	a5,-1
    a0001ca8:	00f70763          	beq	a4,a5,a0001cb6 <ddr_rw_test+0x17e>
    a0001cac:	fef44783          	lbu	a5,-17(s0)
    a0001cb0:	2785                	addiw	a5,a5,1
    a0001cb2:	fef407a3          	sb	a5,-17(s0)
	if(ADDR_BASE[5]!=0xffffffff) result++;
    a0001cb6:	fe043783          	ld	a5,-32(s0)
    a0001cba:	07d1                	addi	a5,a5,20
    a0001cbc:	439c                	lw	a5,0(a5)
    a0001cbe:	873e                	mv	a4,a5
    a0001cc0:	57fd                	li	a5,-1
    a0001cc2:	00f70763          	beq	a4,a5,a0001cd0 <ddr_rw_test+0x198>
    a0001cc6:	fef44783          	lbu	a5,-17(s0)
    a0001cca:	2785                	addiw	a5,a5,1
    a0001ccc:	fef407a3          	sb	a5,-17(s0)
	if(ADDR_BASE[6]!=0x00000000) result++;
    a0001cd0:	fe043783          	ld	a5,-32(s0)
    a0001cd4:	07e1                	addi	a5,a5,24
    a0001cd6:	439c                	lw	a5,0(a5)
    a0001cd8:	c791                	beqz	a5,a0001ce4 <ddr_rw_test+0x1ac>
    a0001cda:	fef44783          	lbu	a5,-17(s0)
    a0001cde:	2785                	addiw	a5,a5,1
    a0001ce0:	fef407a3          	sb	a5,-17(s0)
	if(ADDR_BASE[7]!=0x00000000) result++;
    a0001ce4:	fe043783          	ld	a5,-32(s0)
    a0001ce8:	07f1                	addi	a5,a5,28
    a0001cea:	439c                	lw	a5,0(a5)
    a0001cec:	c791                	beqz	a5,a0001cf8 <ddr_rw_test+0x1c0>
    a0001cee:	fef44783          	lbu	a5,-17(s0)
    a0001cf2:	2785                	addiw	a5,a5,1
    a0001cf4:	fef407a3          	sb	a5,-17(s0)
	if(ADDR_BASE[8]!=0xaaaaaaaa) result++;
    a0001cf8:	fe043783          	ld	a5,-32(s0)
    a0001cfc:	02078793          	addi	a5,a5,32
    a0001d00:	439c                	lw	a5,0(a5)
    a0001d02:	873e                	mv	a4,a5
    a0001d04:	aaaab7b7          	lui	a5,0xaaaab
    a0001d08:	aaa78793          	addi	a5,a5,-1366 # ffffffffaaaaaaaa <__bss_e+0xffffffff0aaa17ea>
    a0001d0c:	00f70763          	beq	a4,a5,a0001d1a <ddr_rw_test+0x1e2>
    a0001d10:	fef44783          	lbu	a5,-17(s0)
    a0001d14:	2785                	addiw	a5,a5,1
    a0001d16:	fef407a3          	sb	a5,-17(s0)
	if(ADDR_BASE[9]!=0x55555555) result++;
    a0001d1a:	fe043783          	ld	a5,-32(s0)
    a0001d1e:	02478793          	addi	a5,a5,36
    a0001d22:	439c                	lw	a5,0(a5)
    a0001d24:	873e                	mv	a4,a5
    a0001d26:	555557b7          	lui	a5,0x55555
    a0001d2a:	55578793          	addi	a5,a5,1365 # 55555555 <_ftext+0x55555555>
    a0001d2e:	00f70763          	beq	a4,a5,a0001d3c <ddr_rw_test+0x204>
    a0001d32:	fef44783          	lbu	a5,-17(s0)
    a0001d36:	2785                	addiw	a5,a5,1
    a0001d38:	fef407a3          	sb	a5,-17(s0)
	if(ADDR_BASE[10]!=0xaaaaaaaa) result++;
    a0001d3c:	fe043783          	ld	a5,-32(s0)
    a0001d40:	02878793          	addi	a5,a5,40
    a0001d44:	439c                	lw	a5,0(a5)
    a0001d46:	873e                	mv	a4,a5
    a0001d48:	aaaab7b7          	lui	a5,0xaaaab
    a0001d4c:	aaa78793          	addi	a5,a5,-1366 # ffffffffaaaaaaaa <__bss_e+0xffffffff0aaa17ea>
    a0001d50:	00f70763          	beq	a4,a5,a0001d5e <ddr_rw_test+0x226>
    a0001d54:	fef44783          	lbu	a5,-17(s0)
    a0001d58:	2785                	addiw	a5,a5,1
    a0001d5a:	fef407a3          	sb	a5,-17(s0)
	if(ADDR_BASE[11]!=0x55555555) result++;
    a0001d5e:	fe043783          	ld	a5,-32(s0)
    a0001d62:	02c78793          	addi	a5,a5,44
    a0001d66:	439c                	lw	a5,0(a5)
    a0001d68:	873e                	mv	a4,a5
    a0001d6a:	555557b7          	lui	a5,0x55555
    a0001d6e:	55578793          	addi	a5,a5,1365 # 55555555 <_ftext+0x55555555>
    a0001d72:	00f70763          	beq	a4,a5,a0001d80 <ddr_rw_test+0x248>
    a0001d76:	fef44783          	lbu	a5,-17(s0)
    a0001d7a:	2785                	addiw	a5,a5,1
    a0001d7c:	fef407a3          	sb	a5,-17(s0)
	if(ADDR_BASE[12]!=0x55555555) result++;
    a0001d80:	fe043783          	ld	a5,-32(s0)
    a0001d84:	03078793          	addi	a5,a5,48
    a0001d88:	439c                	lw	a5,0(a5)
    a0001d8a:	873e                	mv	a4,a5
    a0001d8c:	555557b7          	lui	a5,0x55555
    a0001d90:	55578793          	addi	a5,a5,1365 # 55555555 <_ftext+0x55555555>
    a0001d94:	00f70763          	beq	a4,a5,a0001da2 <ddr_rw_test+0x26a>
    a0001d98:	fef44783          	lbu	a5,-17(s0)
    a0001d9c:	2785                	addiw	a5,a5,1
    a0001d9e:	fef407a3          	sb	a5,-17(s0)
	if(ADDR_BASE[13]!=0xaaaaaaaa) result++;
    a0001da2:	fe043783          	ld	a5,-32(s0)
    a0001da6:	03478793          	addi	a5,a5,52
    a0001daa:	439c                	lw	a5,0(a5)
    a0001dac:	873e                	mv	a4,a5
    a0001dae:	aaaab7b7          	lui	a5,0xaaaab
    a0001db2:	aaa78793          	addi	a5,a5,-1366 # ffffffffaaaaaaaa <__bss_e+0xffffffff0aaa17ea>
    a0001db6:	00f70763          	beq	a4,a5,a0001dc4 <ddr_rw_test+0x28c>
    a0001dba:	fef44783          	lbu	a5,-17(s0)
    a0001dbe:	2785                	addiw	a5,a5,1
    a0001dc0:	fef407a3          	sb	a5,-17(s0)
	if(ADDR_BASE[14]!=0x55555555) result++;
    a0001dc4:	fe043783          	ld	a5,-32(s0)
    a0001dc8:	03878793          	addi	a5,a5,56
    a0001dcc:	439c                	lw	a5,0(a5)
    a0001dce:	873e                	mv	a4,a5
    a0001dd0:	555557b7          	lui	a5,0x55555
    a0001dd4:	55578793          	addi	a5,a5,1365 # 55555555 <_ftext+0x55555555>
    a0001dd8:	00f70763          	beq	a4,a5,a0001de6 <ddr_rw_test+0x2ae>
    a0001ddc:	fef44783          	lbu	a5,-17(s0)
    a0001de0:	2785                	addiw	a5,a5,1
    a0001de2:	fef407a3          	sb	a5,-17(s0)
	if(ADDR_BASE[15]!=0xaaaaaaaa) result++;
    a0001de6:	fe043783          	ld	a5,-32(s0)
    a0001dea:	03c78793          	addi	a5,a5,60
    a0001dee:	439c                	lw	a5,0(a5)
    a0001df0:	873e                	mv	a4,a5
    a0001df2:	aaaab7b7          	lui	a5,0xaaaab
    a0001df6:	aaa78793          	addi	a5,a5,-1366 # ffffffffaaaaaaaa <__bss_e+0xffffffff0aaa17ea>
    a0001dfa:	00f70763          	beq	a4,a5,a0001e08 <ddr_rw_test+0x2d0>
    a0001dfe:	fef44783          	lbu	a5,-17(s0)
    a0001e02:	2785                	addiw	a5,a5,1
    a0001e04:	fef407a3          	sb	a5,-17(s0)
	//printf("%08x %08x %08x %08x %08x %08x %08x %08x\n", ADDR_BASE[0], ADDR_BASE[1], ADDR_BASE[2], ADDR_BASE[3], ADDR_BASE[4], ADDR_BASE[5], ADDR_BASE[6], ADDR_BASE[7]);
	return result;
    a0001e08:	fef44783          	lbu	a5,-17(s0)
}
    a0001e0c:	853e                	mv	a0,a5
    a0001e0e:	60e2                	ld	ra,24(sp)
    a0001e10:	6442                	ld	s0,16(sp)
    a0001e12:	6105                	addi	sp,sp,32
    a0001e14:	8082                	ret

00000000a0001e16 <DdrGetId>:

void DdrGetId()
{
    a0001e16:	1141                	addi	sp,sp,-16
    a0001e18:	e406                	sd	ra,8(sp)
    a0001e1a:	e022                	sd	s0,0(sp)
    a0001e1c:	0800                	addi	s0,sp,16
	DDR_MR_ADR = 5;
    a0001e1e:	403007b7          	lui	a5,0x40300
    a0001e22:	4715                	li	a4,5
    a0001e24:	00e781a3          	sb	a4,3(a5) # 40300003 <_ftext+0x40300003>
	DDR_MR_WE  = 0;
    a0001e28:	403007b7          	lui	a5,0x40300
    a0001e2c:	4398                	lw	a4,0(a5)
    a0001e2e:	9b75                	andi	a4,a4,-3
    a0001e30:	c398                	sw	a4,0(a5)
	DDR_MR_REQ = 1;
    a0001e32:	403007b7          	lui	a5,0x40300
    a0001e36:	4398                	lw	a4,0(a5)
    a0001e38:	00176713          	ori	a4,a4,1
    a0001e3c:	c398                	sw	a4,0(a5)
	while(DDR_MR_REQ);
    a0001e3e:	0001                	nop
    a0001e40:	403007b7          	lui	a5,0x40300
    a0001e44:	439c                	lw	a5,0(a5)
    a0001e46:	8b85                	andi	a5,a5,1
    a0001e48:	0ff7f793          	andi	a5,a5,255
    a0001e4c:	fbf5                	bnez	a5,a0001e40 <DdrGetId+0x2a>
	_printf("MR5:%08x\n", DDR_MR_RDDAT0);
    a0001e4e:	403007b7          	lui	a5,0x40300
    a0001e52:	03078793          	addi	a5,a5,48 # 40300030 <_ftext+0x40300030>
    a0001e56:	439c                	lw	a5,0(a5)
    a0001e58:	2781                	sext.w	a5,a5
    a0001e5a:	85be                	mv	a1,a5
    a0001e5c:	00003517          	auipc	a0,0x3
    a0001e60:	f2450513          	addi	a0,a0,-220 # a0004d80 <__text_e+0x100>
    a0001e64:	2b6020ef          	jal	ra,a000411a <_printf>
	DDR_MR_ADR = 8;
    a0001e68:	403007b7          	lui	a5,0x40300
    a0001e6c:	4721                	li	a4,8
    a0001e6e:	00e781a3          	sb	a4,3(a5) # 40300003 <_ftext+0x40300003>
	DDR_MR_WE  = 0;
    a0001e72:	403007b7          	lui	a5,0x40300
    a0001e76:	4398                	lw	a4,0(a5)
    a0001e78:	9b75                	andi	a4,a4,-3
    a0001e7a:	c398                	sw	a4,0(a5)
	DDR_MR_REQ = 1;
    a0001e7c:	403007b7          	lui	a5,0x40300
    a0001e80:	4398                	lw	a4,0(a5)
    a0001e82:	00176713          	ori	a4,a4,1
    a0001e86:	c398                	sw	a4,0(a5)
	while(DDR_MR_REQ);
    a0001e88:	0001                	nop
    a0001e8a:	403007b7          	lui	a5,0x40300
    a0001e8e:	439c                	lw	a5,0(a5)
    a0001e90:	8b85                	andi	a5,a5,1
    a0001e92:	0ff7f793          	andi	a5,a5,255
    a0001e96:	fbf5                	bnez	a5,a0001e8a <DdrGetId+0x74>
	_printf("MR8:%08x\n", DDR_MR_RDDAT0);
    a0001e98:	403007b7          	lui	a5,0x40300
    a0001e9c:	03078793          	addi	a5,a5,48 # 40300030 <_ftext+0x40300030>
    a0001ea0:	439c                	lw	a5,0(a5)
    a0001ea2:	2781                	sext.w	a5,a5
    a0001ea4:	85be                	mv	a1,a5
    a0001ea6:	00003517          	auipc	a0,0x3
    a0001eaa:	eea50513          	addi	a0,a0,-278 # a0004d90 <__text_e+0x110>
    a0001eae:	26c020ef          	jal	ra,a000411a <_printf>
}
    a0001eb2:	0001                	nop
    a0001eb4:	60a2                	ld	ra,8(sp)
    a0001eb6:	6402                	ld	s0,0(sp)
    a0001eb8:	0141                	addi	sp,sp,16
    a0001eba:	8082                	ret

00000000a0001ebc <DdrOn>:

void DdrOn()
{
    a0001ebc:	1141                	addi	sp,sp,-16
    a0001ebe:	e422                	sd	s0,8(sp)
    a0001ec0:	0800                	addi	s0,sp,16
	if(!DDR_PWR_CUR)
    a0001ec2:	403007b7          	lui	a5,0x40300
    a0001ec6:	07a1                	addi	a5,a5,8
    a0001ec8:	439c                	lw	a5,0(a5)
    a0001eca:	0017d79b          	srliw	a5,a5,0x1
    a0001ece:	8b85                	andi	a5,a5,1
    a0001ed0:	0ff7f793          	andi	a5,a5,255
    a0001ed4:	e38d                	bnez	a5,a0001ef6 <DdrOn+0x3a>
	{
		DDR_PWR_REQ = 1;
    a0001ed6:	403007b7          	lui	a5,0x40300
    a0001eda:	07a1                	addi	a5,a5,8
    a0001edc:	4398                	lw	a4,0(a5)
    a0001ede:	00176713          	ori	a4,a4,1
    a0001ee2:	c398                	sw	a4,0(a5)
		while(DDR_PWR_REQ);
    a0001ee4:	0001                	nop
    a0001ee6:	403007b7          	lui	a5,0x40300
    a0001eea:	07a1                	addi	a5,a5,8
    a0001eec:	439c                	lw	a5,0(a5)
    a0001eee:	8b85                	andi	a5,a5,1
    a0001ef0:	0ff7f793          	andi	a5,a5,255
    a0001ef4:	fbed                	bnez	a5,a0001ee6 <DdrOn+0x2a>
	}
}
    a0001ef6:	0001                	nop
    a0001ef8:	6422                	ld	s0,8(sp)
    a0001efa:	0141                	addi	sp,sp,16
    a0001efc:	8082                	ret

00000000a0001efe <DdrOff>:
void DdrOff()
{
    a0001efe:	1141                	addi	sp,sp,-16
    a0001f00:	e422                	sd	s0,8(sp)
    a0001f02:	0800                	addi	s0,sp,16
	if(DDR_PWR_CUR)
    a0001f04:	403007b7          	lui	a5,0x40300
    a0001f08:	07a1                	addi	a5,a5,8
    a0001f0a:	439c                	lw	a5,0(a5)
    a0001f0c:	0017d79b          	srliw	a5,a5,0x1
    a0001f10:	8b85                	andi	a5,a5,1
    a0001f12:	0ff7f793          	andi	a5,a5,255
    a0001f16:	c38d                	beqz	a5,a0001f38 <DdrOff+0x3a>
	{
		DDR_PWR_REQ = 1;
    a0001f18:	403007b7          	lui	a5,0x40300
    a0001f1c:	07a1                	addi	a5,a5,8
    a0001f1e:	4398                	lw	a4,0(a5)
    a0001f20:	00176713          	ori	a4,a4,1
    a0001f24:	c398                	sw	a4,0(a5)
		while(DDR_PWR_REQ);
    a0001f26:	0001                	nop
    a0001f28:	403007b7          	lui	a5,0x40300
    a0001f2c:	07a1                	addi	a5,a5,8
    a0001f2e:	439c                	lw	a5,0(a5)
    a0001f30:	8b85                	andi	a5,a5,1
    a0001f32:	0ff7f793          	andi	a5,a5,255
    a0001f36:	fbed                	bnez	a5,a0001f28 <DdrOff+0x2a>
	}
}
    a0001f38:	0001                	nop
    a0001f3a:	6422                	ld	s0,8(sp)
    a0001f3c:	0141                	addi	sp,sp,16
    a0001f3e:	8082                	ret

00000000a0001f40 <DdrOffOn>:
void DdrOffOn()
{
    a0001f40:	1141                	addi	sp,sp,-16
    a0001f42:	e406                	sd	ra,8(sp)
    a0001f44:	e022                	sd	s0,0(sp)
    a0001f46:	0800                	addi	s0,sp,16
	DdrOff();
    a0001f48:	fb7ff0ef          	jal	ra,a0001efe <DdrOff>
	DdrOn();
    a0001f4c:	f71ff0ef          	jal	ra,a0001ebc <DdrOn>
}
    a0001f50:	0001                	nop
    a0001f52:	60a2                	ld	ra,8(sp)
    a0001f54:	6402                	ld	s0,0(sp)
    a0001f56:	0141                	addi	sp,sp,16
    a0001f58:	8082                	ret

00000000a0001f5a <DdrInit>:

void DdrInit(BYTE Sel)
{
    a0001f5a:	7139                	addi	sp,sp,-64
    a0001f5c:	fc06                	sd	ra,56(sp)
    a0001f5e:	f822                	sd	s0,48(sp)
    a0001f60:	0080                	addi	s0,sp,64
    a0001f62:	87aa                	mv	a5,a0
    a0001f64:	fcf407a3          	sb	a5,-49(s0)
	int i;
	char min=15, max=0;
    a0001f68:	47bd                	li	a5,15
    a0001f6a:	fef405a3          	sb	a5,-21(s0)
    a0001f6e:	fe040523          	sb	zero,-22(s0)

	DdrOff();
    a0001f72:	f8dff0ef          	jal	ra,a0001efe <DdrOff>

	DDR_MEM_SEL = Sel;// (0:128Mb S2/S4, 1:256Mb S2/S4, 2:512Mb S2/S4, 3:1Gb S2, 4:1Gb S4, 5: 2Gb S2, 6:2Gb S4, 7:4Gb S2/S4)
    a0001f76:	403007b7          	lui	a5,0x40300
    a0001f7a:	07a1                	addi	a5,a5,8
    a0001f7c:	fcf44703          	lbu	a4,-49(s0)
    a0001f80:	8b1d                	andi	a4,a4,7
    a0001f82:	0ff77713          	andi	a4,a4,255
    a0001f86:	8b1d                	andi	a4,a4,7
    a0001f88:	0087171b          	slliw	a4,a4,0x8
    a0001f8c:	4394                	lw	a3,0(a5)
    a0001f8e:	8ff6f693          	andi	a3,a3,-1793
    a0001f92:	8f55                	or	a4,a4,a3
    a0001f94:	c398                	sw	a4,0(a5)
	DDR_RD_EN_MASK  = 0x08;
    a0001f96:	403007b7          	lui	a5,0x40300
    a0001f9a:	02878793          	addi	a5,a5,40 # 40300028 <_ftext+0x40300028>
    a0001f9e:	4721                	li	a4,8
    a0001fa0:	00e781a3          	sb	a4,3(a5)
	DDR_RD_VAL_EDGE = 1;
    a0001fa4:	403007b7          	lui	a5,0x40300
    a0001fa8:	02878793          	addi	a5,a5,40 # 40300028 <_ftext+0x40300028>
    a0001fac:	4394                	lw	a3,0(a5)
    a0001fae:	6741                	lui	a4,0x10
    a0001fb0:	8f55                	or	a4,a4,a3
    a0001fb2:	c398                	sw	a4,0(a5)
	DDR_RD_VAL_LTC	= 6;
    a0001fb4:	403007b7          	lui	a5,0x40300
    a0001fb8:	02878793          	addi	a5,a5,40 # 40300028 <_ftext+0x40300028>
    a0001fbc:	4394                	lw	a3,0(a5)
    a0001fbe:	7745                	lui	a4,0xffff1
    a0001fc0:	177d                	addi	a4,a4,-1
    a0001fc2:	8f75                	and	a4,a4,a3
    a0001fc4:	86ba                	mv	a3,a4
    a0001fc6:	6719                	lui	a4,0x6
    a0001fc8:	8f55                	or	a4,a4,a3
    a0001fca:	c398                	sw	a4,0(a5)
	DDR_MRR_VAL_LTC	= 6;
    a0001fcc:	403007b7          	lui	a5,0x40300
    a0001fd0:	02878793          	addi	a5,a5,40 # 40300028 <_ftext+0x40300028>
    a0001fd4:	4394                	lw	a3,0(a5)
    a0001fd6:	777d                	lui	a4,0xfffff
    a0001fd8:	0ff70713          	addi	a4,a4,255 # fffffffffffff0ff <__bss_e+0xffffffff5fff5e3f>
    a0001fdc:	8f75                	and	a4,a4,a3
    a0001fde:	60076713          	ori	a4,a4,1536
    a0001fe2:	c398                	sw	a4,0(a5)
	DDR_WR_LTC 		= 1;
    a0001fe4:	403007b7          	lui	a5,0x40300
    a0001fe8:	02878793          	addi	a5,a5,40 # 40300028 <_ftext+0x40300028>
    a0001fec:	4398                	lw	a4,0(a5)
    a0001fee:	9b61                	andi	a4,a4,-8
    a0001ff0:	00176713          	ori	a4,a4,1
    a0001ff4:	c398                	sw	a4,0(a5)

	DdrOn();
    a0001ff6:	ec7ff0ef          	jal	ra,a0001ebc <DdrOn>

	for(i=0;i<16;i++)
    a0001ffa:	fe042623          	sw	zero,-20(s0)
    a0001ffe:	a04d                	j	a00020a0 <DdrInit+0x146>
	{
		DDR_DLY_CSOUT = i;
    a0002000:	403007b7          	lui	a5,0x40300
    a0002004:	05078793          	addi	a5,a5,80 # 40300050 <_ftext+0x40300050>
    a0002008:	fec42703          	lw	a4,-20(s0)
    a000200c:	8b3d                	andi	a4,a4,15
    a000200e:	0ff77713          	andi	a4,a4,255
    a0002012:	8b3d                	andi	a4,a4,15
    a0002014:	0087171b          	slliw	a4,a4,0x8
    a0002018:	4390                	lw	a2,0(a5)
    a000201a:	76fd                	lui	a3,0xfffff
    a000201c:	0ff68693          	addi	a3,a3,255 # fffffffffffff0ff <__bss_e+0xffffffff5fff5e3f>
    a0002020:	8ef1                	and	a3,a3,a2
    a0002022:	8f55                	or	a4,a4,a3
    a0002024:	c398                	sw	a4,0(a5)
		CaOutDly(i);
    a0002026:	fec42783          	lw	a5,-20(s0)
    a000202a:	853e                	mv	a0,a5
    a000202c:	f02ff0ef          	jal	ra,a000172e <CaOutDly>
		char temp = ddr_cal_test();
    a0002030:	87bff0ef          	jal	ra,a00018aa <ddr_cal_test>
    a0002034:	87aa                	mv	a5,a0
    a0002036:	fef404a3          	sb	a5,-23(s0)
		if(temp!=0) _printf("_");
    a000203a:	fe944783          	lbu	a5,-23(s0)
    a000203e:	0ff7f793          	andi	a5,a5,255
    a0002042:	cb81                	beqz	a5,a0002052 <DdrInit+0xf8>
    a0002044:	00003517          	auipc	a0,0x3
    a0002048:	d5c50513          	addi	a0,a0,-676 # a0004da0 <__text_e+0x120>
    a000204c:	0ce020ef          	jal	ra,a000411a <_printf>
    a0002050:	a089                	j	a0002092 <DdrInit+0x138>
		else
		{
			_printf("*");
    a0002052:	00003517          	auipc	a0,0x3
    a0002056:	d5650513          	addi	a0,a0,-682 # a0004da8 <__text_e+0x128>
    a000205a:	0c0020ef          	jal	ra,a000411a <_printf>
			if(min>i) min = i;
    a000205e:	feb44783          	lbu	a5,-21(s0)
    a0002062:	0007871b          	sext.w	a4,a5
    a0002066:	fec42783          	lw	a5,-20(s0)
    a000206a:	2781                	sext.w	a5,a5
    a000206c:	00e7d663          	ble	a4,a5,a0002078 <DdrInit+0x11e>
    a0002070:	fec42783          	lw	a5,-20(s0)
    a0002074:	fef405a3          	sb	a5,-21(s0)
			if(max<i) max = i;
    a0002078:	fea44783          	lbu	a5,-22(s0)
    a000207c:	0007871b          	sext.w	a4,a5
    a0002080:	fec42783          	lw	a5,-20(s0)
    a0002084:	2781                	sext.w	a5,a5
    a0002086:	00f75663          	ble	a5,a4,a0002092 <DdrInit+0x138>
    a000208a:	fec42783          	lw	a5,-20(s0)
    a000208e:	fef40523          	sb	a5,-22(s0)
		}
		DdrOffOn();
    a0002092:	eafff0ef          	jal	ra,a0001f40 <DdrOffOn>
	for(i=0;i<16;i++)
    a0002096:	fec42783          	lw	a5,-20(s0)
    a000209a:	2785                	addiw	a5,a5,1
    a000209c:	fef42623          	sw	a5,-20(s0)
    a00020a0:	fec42783          	lw	a5,-20(s0)
    a00020a4:	0007871b          	sext.w	a4,a5
    a00020a8:	47bd                	li	a5,15
    a00020aa:	f4e7dbe3          	ble	a4,a5,a0002000 <DdrInit+0xa6>
	}
	if(min==15){ _printf("CA FAIL\n"); while(1);}
    a00020ae:	feb44783          	lbu	a5,-21(s0)
    a00020b2:	0ff7f713          	andi	a4,a5,255
    a00020b6:	47bd                	li	a5,15
    a00020b8:	00f71963          	bne	a4,a5,a00020ca <DdrInit+0x170>
    a00020bc:	00003517          	auipc	a0,0x3
    a00020c0:	cf450513          	addi	a0,a0,-780 # a0004db0 <__text_e+0x130>
    a00020c4:	056020ef          	jal	ra,a000411a <_printf>
    a00020c8:	a001                	j	a00020c8 <DdrInit+0x16e>
	CaOutDly((max+min+1)>>1);
    a00020ca:	fea44783          	lbu	a5,-22(s0)
    a00020ce:	0007871b          	sext.w	a4,a5
    a00020d2:	feb44783          	lbu	a5,-21(s0)
    a00020d6:	2781                	sext.w	a5,a5
    a00020d8:	9fb9                	addw	a5,a5,a4
    a00020da:	2781                	sext.w	a5,a5
    a00020dc:	2785                	addiw	a5,a5,1
    a00020de:	2781                	sext.w	a5,a5
    a00020e0:	4017d79b          	sraiw	a5,a5,0x1
    a00020e4:	2781                	sext.w	a5,a5
    a00020e6:	853e                	mv	a0,a5
    a00020e8:	e46ff0ef          	jal	ra,a000172e <CaOutDly>
	DDR_DLY_CSOUT = (max+min+1)>>1;
    a00020ec:	fea44783          	lbu	a5,-22(s0)
    a00020f0:	0007871b          	sext.w	a4,a5
    a00020f4:	feb44783          	lbu	a5,-21(s0)
    a00020f8:	2781                	sext.w	a5,a5
    a00020fa:	9fb9                	addw	a5,a5,a4
    a00020fc:	2781                	sext.w	a5,a5
    a00020fe:	2785                	addiw	a5,a5,1
    a0002100:	2781                	sext.w	a5,a5
    a0002102:	4017d79b          	sraiw	a5,a5,0x1
    a0002106:	0007871b          	sext.w	a4,a5
    a000210a:	403007b7          	lui	a5,0x40300
    a000210e:	05078793          	addi	a5,a5,80 # 40300050 <_ftext+0x40300050>
    a0002112:	8b3d                	andi	a4,a4,15
    a0002114:	0ff77713          	andi	a4,a4,255
    a0002118:	8b3d                	andi	a4,a4,15
    a000211a:	0087171b          	slliw	a4,a4,0x8
    a000211e:	4390                	lw	a2,0(a5)
    a0002120:	76fd                	lui	a3,0xfffff
    a0002122:	0ff68693          	addi	a3,a3,255 # fffffffffffff0ff <__bss_e+0xffffffff5fff5e3f>
    a0002126:	8ef1                	and	a3,a3,a2
    a0002128:	8f55                	or	a4,a4,a3
    a000212a:	c398                	sw	a4,0(a5)
	_printf("DDR_DLY_CA*OUT : %d  ",DDR_DLY_CA9OUT);
    a000212c:	403007b7          	lui	a5,0x40300
    a0002130:	05078793          	addi	a5,a5,80 # 40300050 <_ftext+0x40300050>
    a0002134:	439c                	lw	a5,0(a5)
    a0002136:	0047d79b          	srliw	a5,a5,0x4
    a000213a:	8bbd                	andi	a5,a5,15
    a000213c:	0ff7f793          	andi	a5,a5,255
    a0002140:	2781                	sext.w	a5,a5
    a0002142:	85be                	mv	a1,a5
    a0002144:	00003517          	auipc	a0,0x3
    a0002148:	c7c50513          	addi	a0,a0,-900 # a0004dc0 <__text_e+0x140>
    a000214c:	7cf010ef          	jal	ra,a000411a <_printf>
	_printf("DDR_DLY_CSOUT : %d\n",DDR_DLY_CSOUT);
    a0002150:	403007b7          	lui	a5,0x40300
    a0002154:	05078793          	addi	a5,a5,80 # 40300050 <_ftext+0x40300050>
    a0002158:	439c                	lw	a5,0(a5)
    a000215a:	0087d79b          	srliw	a5,a5,0x8
    a000215e:	8bbd                	andi	a5,a5,15
    a0002160:	0ff7f793          	andi	a5,a5,255
    a0002164:	2781                	sext.w	a5,a5
    a0002166:	85be                	mv	a1,a5
    a0002168:	00003517          	auipc	a0,0x3
    a000216c:	c7050513          	addi	a0,a0,-912 # a0004dd8 <__text_e+0x158>
    a0002170:	7ab010ef          	jal	ra,a000411a <_printf>
        DdrOffOn();
    a0002174:	dcdff0ef          	jal	ra,a0001f40 <DdrOffOn>
	min=15, max=0;
    a0002178:	47bd                	li	a5,15
    a000217a:	fef405a3          	sb	a5,-21(s0)
    a000217e:	fe040523          	sb	zero,-22(s0)
	for(i=0;i<16;i++)
    a0002182:	fe042623          	sw	zero,-20(s0)
    a0002186:	a841                	j	a0002216 <DdrInit+0x2bc>
	{
		DDR_DLY_DQS0IN = i;
    a0002188:	403007b7          	lui	a5,0x40300
    a000218c:	06078793          	addi	a5,a5,96 # 40300060 <_ftext+0x40300060>
    a0002190:	fec42703          	lw	a4,-20(s0)
    a0002194:	8b3d                	andi	a4,a4,15
    a0002196:	0ff77713          	andi	a4,a4,255
    a000219a:	8b3d                	andi	a4,a4,15
    a000219c:	0047171b          	slliw	a4,a4,0x4
    a00021a0:	4394                	lw	a3,0(a5)
    a00021a2:	f0f6f693          	andi	a3,a3,-241
    a00021a6:	8f55                	or	a4,a4,a3
    a00021a8:	c398                	sw	a4,0(a5)
		char temp = ddr_cal_test();
    a00021aa:	f00ff0ef          	jal	ra,a00018aa <ddr_cal_test>
    a00021ae:	87aa                	mv	a5,a0
    a00021b0:	fef40423          	sb	a5,-24(s0)
		if(temp!=0)  _printf("_");
    a00021b4:	fe844783          	lbu	a5,-24(s0)
    a00021b8:	0ff7f793          	andi	a5,a5,255
    a00021bc:	cb81                	beqz	a5,a00021cc <DdrInit+0x272>
    a00021be:	00003517          	auipc	a0,0x3
    a00021c2:	be250513          	addi	a0,a0,-1054 # a0004da0 <__text_e+0x120>
    a00021c6:	755010ef          	jal	ra,a000411a <_printf>
    a00021ca:	a089                	j	a000220c <DdrInit+0x2b2>
		else
		{
			_printf("*");
    a00021cc:	00003517          	auipc	a0,0x3
    a00021d0:	bdc50513          	addi	a0,a0,-1060 # a0004da8 <__text_e+0x128>
    a00021d4:	747010ef          	jal	ra,a000411a <_printf>
			if(min>i) min = i;
    a00021d8:	feb44783          	lbu	a5,-21(s0)
    a00021dc:	0007871b          	sext.w	a4,a5
    a00021e0:	fec42783          	lw	a5,-20(s0)
    a00021e4:	2781                	sext.w	a5,a5
    a00021e6:	00e7d663          	ble	a4,a5,a00021f2 <DdrInit+0x298>
    a00021ea:	fec42783          	lw	a5,-20(s0)
    a00021ee:	fef405a3          	sb	a5,-21(s0)
			if(max<i) max = i;
    a00021f2:	fea44783          	lbu	a5,-22(s0)
    a00021f6:	0007871b          	sext.w	a4,a5
    a00021fa:	fec42783          	lw	a5,-20(s0)
    a00021fe:	2781                	sext.w	a5,a5
    a0002200:	00f75663          	ble	a5,a4,a000220c <DdrInit+0x2b2>
    a0002204:	fec42783          	lw	a5,-20(s0)
    a0002208:	fef40523          	sb	a5,-22(s0)
	for(i=0;i<16;i++)
    a000220c:	fec42783          	lw	a5,-20(s0)
    a0002210:	2785                	addiw	a5,a5,1
    a0002212:	fef42623          	sw	a5,-20(s0)
    a0002216:	fec42783          	lw	a5,-20(s0)
    a000221a:	0007871b          	sext.w	a4,a5
    a000221e:	47bd                	li	a5,15
    a0002220:	f6e7d4e3          	ble	a4,a5,a0002188 <DdrInit+0x22e>
		}
	}
	if(min==15){ _printf("DDR_DLY_DQS0IN FAIL\n"); while(1);}
    a0002224:	feb44783          	lbu	a5,-21(s0)
    a0002228:	0ff7f713          	andi	a4,a5,255
    a000222c:	47bd                	li	a5,15
    a000222e:	00f71963          	bne	a4,a5,a0002240 <DdrInit+0x2e6>
    a0002232:	00003517          	auipc	a0,0x3
    a0002236:	bbe50513          	addi	a0,a0,-1090 # a0004df0 <__text_e+0x170>
    a000223a:	6e1010ef          	jal	ra,a000411a <_printf>
    a000223e:	a001                	j	a000223e <DdrInit+0x2e4>
	DDR_DLY_DQS0IN = min+2;
    a0002240:	feb44783          	lbu	a5,-21(s0)
    a0002244:	2789                	addiw	a5,a5,2
    a0002246:	0ff7f713          	andi	a4,a5,255
    a000224a:	403007b7          	lui	a5,0x40300
    a000224e:	06078793          	addi	a5,a5,96 # 40300060 <_ftext+0x40300060>
    a0002252:	8b3d                	andi	a4,a4,15
    a0002254:	0ff77713          	andi	a4,a4,255
    a0002258:	8b3d                	andi	a4,a4,15
    a000225a:	0047171b          	slliw	a4,a4,0x4
    a000225e:	4394                	lw	a3,0(a5)
    a0002260:	f0f6f693          	andi	a3,a3,-241
    a0002264:	8f55                	or	a4,a4,a3
    a0002266:	c398                	sw	a4,0(a5)
	_printf("DDR_DLY_DQS0IN : %d\n",DDR_DLY_DQS0IN);
    a0002268:	403007b7          	lui	a5,0x40300
    a000226c:	06078793          	addi	a5,a5,96 # 40300060 <_ftext+0x40300060>
    a0002270:	439c                	lw	a5,0(a5)
    a0002272:	0047d79b          	srliw	a5,a5,0x4
    a0002276:	8bbd                	andi	a5,a5,15
    a0002278:	0ff7f793          	andi	a5,a5,255
    a000227c:	2781                	sext.w	a5,a5
    a000227e:	85be                	mv	a1,a5
    a0002280:	00003517          	auipc	a0,0x3
    a0002284:	b8850513          	addi	a0,a0,-1144 # a0004e08 <__text_e+0x188>
    a0002288:	693010ef          	jal	ra,a000411a <_printf>

	min=15, max=0;
    a000228c:	47bd                	li	a5,15
    a000228e:	fef405a3          	sb	a5,-21(s0)
    a0002292:	fe040523          	sb	zero,-22(s0)
	for(i=0;i<16;i++)
    a0002296:	fe042623          	sw	zero,-20(s0)
    a000229a:	a841                	j	a000232a <DdrInit+0x3d0>
	{
		DDR_DLY_DQS1IN = i;
    a000229c:	403007b7          	lui	a5,0x40300
    a00022a0:	07078793          	addi	a5,a5,112 # 40300070 <_ftext+0x40300070>
    a00022a4:	fec42703          	lw	a4,-20(s0)
    a00022a8:	8b3d                	andi	a4,a4,15
    a00022aa:	0ff77713          	andi	a4,a4,255
    a00022ae:	8b3d                	andi	a4,a4,15
    a00022b0:	0047171b          	slliw	a4,a4,0x4
    a00022b4:	4394                	lw	a3,0(a5)
    a00022b6:	f0f6f693          	andi	a3,a3,-241
    a00022ba:	8f55                	or	a4,a4,a3
    a00022bc:	c398                	sw	a4,0(a5)
		char temp = ddr_cal_test();
    a00022be:	decff0ef          	jal	ra,a00018aa <ddr_cal_test>
    a00022c2:	87aa                	mv	a5,a0
    a00022c4:	fef403a3          	sb	a5,-25(s0)
		if(temp!=0)  _printf("_");
    a00022c8:	fe744783          	lbu	a5,-25(s0)
    a00022cc:	0ff7f793          	andi	a5,a5,255
    a00022d0:	cb81                	beqz	a5,a00022e0 <DdrInit+0x386>
    a00022d2:	00003517          	auipc	a0,0x3
    a00022d6:	ace50513          	addi	a0,a0,-1330 # a0004da0 <__text_e+0x120>
    a00022da:	641010ef          	jal	ra,a000411a <_printf>
    a00022de:	a089                	j	a0002320 <DdrInit+0x3c6>
		else
		{
			_printf("*");
    a00022e0:	00003517          	auipc	a0,0x3
    a00022e4:	ac850513          	addi	a0,a0,-1336 # a0004da8 <__text_e+0x128>
    a00022e8:	633010ef          	jal	ra,a000411a <_printf>
			if(min>i) min = i;
    a00022ec:	feb44783          	lbu	a5,-21(s0)
    a00022f0:	0007871b          	sext.w	a4,a5
    a00022f4:	fec42783          	lw	a5,-20(s0)
    a00022f8:	2781                	sext.w	a5,a5
    a00022fa:	00e7d663          	ble	a4,a5,a0002306 <DdrInit+0x3ac>
    a00022fe:	fec42783          	lw	a5,-20(s0)
    a0002302:	fef405a3          	sb	a5,-21(s0)
			if(max<i) max = i;
    a0002306:	fea44783          	lbu	a5,-22(s0)
    a000230a:	0007871b          	sext.w	a4,a5
    a000230e:	fec42783          	lw	a5,-20(s0)
    a0002312:	2781                	sext.w	a5,a5
    a0002314:	00f75663          	ble	a5,a4,a0002320 <DdrInit+0x3c6>
    a0002318:	fec42783          	lw	a5,-20(s0)
    a000231c:	fef40523          	sb	a5,-22(s0)
	for(i=0;i<16;i++)
    a0002320:	fec42783          	lw	a5,-20(s0)
    a0002324:	2785                	addiw	a5,a5,1
    a0002326:	fef42623          	sw	a5,-20(s0)
    a000232a:	fec42783          	lw	a5,-20(s0)
    a000232e:	0007871b          	sext.w	a4,a5
    a0002332:	47bd                	li	a5,15
    a0002334:	f6e7d4e3          	ble	a4,a5,a000229c <DdrInit+0x342>
		}
	}
	if(min==15){ _printf("DDR_DLY_DQS1IN FAIL\n"); while(1);}
    a0002338:	feb44783          	lbu	a5,-21(s0)
    a000233c:	0ff7f713          	andi	a4,a5,255
    a0002340:	47bd                	li	a5,15
    a0002342:	00f71963          	bne	a4,a5,a0002354 <DdrInit+0x3fa>
    a0002346:	00003517          	auipc	a0,0x3
    a000234a:	ada50513          	addi	a0,a0,-1318 # a0004e20 <__text_e+0x1a0>
    a000234e:	5cd010ef          	jal	ra,a000411a <_printf>
    a0002352:	a001                	j	a0002352 <DdrInit+0x3f8>
	DDR_DLY_DQS1IN = min+2;
    a0002354:	feb44783          	lbu	a5,-21(s0)
    a0002358:	2789                	addiw	a5,a5,2
    a000235a:	0ff7f713          	andi	a4,a5,255
    a000235e:	403007b7          	lui	a5,0x40300
    a0002362:	07078793          	addi	a5,a5,112 # 40300070 <_ftext+0x40300070>
    a0002366:	8b3d                	andi	a4,a4,15
    a0002368:	0ff77713          	andi	a4,a4,255
    a000236c:	8b3d                	andi	a4,a4,15
    a000236e:	0047171b          	slliw	a4,a4,0x4
    a0002372:	4394                	lw	a3,0(a5)
    a0002374:	f0f6f693          	andi	a3,a3,-241
    a0002378:	8f55                	or	a4,a4,a3
    a000237a:	c398                	sw	a4,0(a5)
	_printf("DDR_DLY_DQS1IN : %d\n",DDR_DLY_DQS1IN);
    a000237c:	403007b7          	lui	a5,0x40300
    a0002380:	07078793          	addi	a5,a5,112 # 40300070 <_ftext+0x40300070>
    a0002384:	439c                	lw	a5,0(a5)
    a0002386:	0047d79b          	srliw	a5,a5,0x4
    a000238a:	8bbd                	andi	a5,a5,15
    a000238c:	0ff7f793          	andi	a5,a5,255
    a0002390:	2781                	sext.w	a5,a5
    a0002392:	85be                	mv	a1,a5
    a0002394:	00003517          	auipc	a0,0x3
    a0002398:	aa450513          	addi	a0,a0,-1372 # a0004e38 <__text_e+0x1b8>
    a000239c:	57f010ef          	jal	ra,a000411a <_printf>

	min=15, max=0;
    a00023a0:	47bd                	li	a5,15
    a00023a2:	fef405a3          	sb	a5,-21(s0)
    a00023a6:	fe040523          	sb	zero,-22(s0)
	for(i=0;i<16;i++)
    a00023aa:	fe042623          	sw	zero,-20(s0)
    a00023ae:	a841                	j	a000243e <DdrInit+0x4e4>
	{
		DDR_DLY_DQS2IN = i;
    a00023b0:	403007b7          	lui	a5,0x40300
    a00023b4:	08078793          	addi	a5,a5,128 # 40300080 <_ftext+0x40300080>
    a00023b8:	fec42703          	lw	a4,-20(s0)
    a00023bc:	8b3d                	andi	a4,a4,15
    a00023be:	0ff77713          	andi	a4,a4,255
    a00023c2:	8b3d                	andi	a4,a4,15
    a00023c4:	0047171b          	slliw	a4,a4,0x4
    a00023c8:	4394                	lw	a3,0(a5)
    a00023ca:	f0f6f693          	andi	a3,a3,-241
    a00023ce:	8f55                	or	a4,a4,a3
    a00023d0:	c398                	sw	a4,0(a5)
		char temp = ddr_cal_test();
    a00023d2:	cd8ff0ef          	jal	ra,a00018aa <ddr_cal_test>
    a00023d6:	87aa                	mv	a5,a0
    a00023d8:	fef40323          	sb	a5,-26(s0)
		if(temp!=0)  _printf("_");
    a00023dc:	fe644783          	lbu	a5,-26(s0)
    a00023e0:	0ff7f793          	andi	a5,a5,255
    a00023e4:	cb81                	beqz	a5,a00023f4 <DdrInit+0x49a>
    a00023e6:	00003517          	auipc	a0,0x3
    a00023ea:	9ba50513          	addi	a0,a0,-1606 # a0004da0 <__text_e+0x120>
    a00023ee:	52d010ef          	jal	ra,a000411a <_printf>
    a00023f2:	a089                	j	a0002434 <DdrInit+0x4da>
		else
		{
			_printf("*");
    a00023f4:	00003517          	auipc	a0,0x3
    a00023f8:	9b450513          	addi	a0,a0,-1612 # a0004da8 <__text_e+0x128>
    a00023fc:	51f010ef          	jal	ra,a000411a <_printf>
			if(min>i) min = i;
    a0002400:	feb44783          	lbu	a5,-21(s0)
    a0002404:	0007871b          	sext.w	a4,a5
    a0002408:	fec42783          	lw	a5,-20(s0)
    a000240c:	2781                	sext.w	a5,a5
    a000240e:	00e7d663          	ble	a4,a5,a000241a <DdrInit+0x4c0>
    a0002412:	fec42783          	lw	a5,-20(s0)
    a0002416:	fef405a3          	sb	a5,-21(s0)
			if(max<i) max = i;
    a000241a:	fea44783          	lbu	a5,-22(s0)
    a000241e:	0007871b          	sext.w	a4,a5
    a0002422:	fec42783          	lw	a5,-20(s0)
    a0002426:	2781                	sext.w	a5,a5
    a0002428:	00f75663          	ble	a5,a4,a0002434 <DdrInit+0x4da>
    a000242c:	fec42783          	lw	a5,-20(s0)
    a0002430:	fef40523          	sb	a5,-22(s0)
	for(i=0;i<16;i++)
    a0002434:	fec42783          	lw	a5,-20(s0)
    a0002438:	2785                	addiw	a5,a5,1
    a000243a:	fef42623          	sw	a5,-20(s0)
    a000243e:	fec42783          	lw	a5,-20(s0)
    a0002442:	0007871b          	sext.w	a4,a5
    a0002446:	47bd                	li	a5,15
    a0002448:	f6e7d4e3          	ble	a4,a5,a00023b0 <DdrInit+0x456>
		}
	}
	if(min==15){ _printf("DDR_DLY_DQS2IN FAIL\n"); while(1);}
    a000244c:	feb44783          	lbu	a5,-21(s0)
    a0002450:	0ff7f713          	andi	a4,a5,255
    a0002454:	47bd                	li	a5,15
    a0002456:	00f71963          	bne	a4,a5,a0002468 <DdrInit+0x50e>
    a000245a:	00003517          	auipc	a0,0x3
    a000245e:	9f650513          	addi	a0,a0,-1546 # a0004e50 <__text_e+0x1d0>
    a0002462:	4b9010ef          	jal	ra,a000411a <_printf>
    a0002466:	a001                	j	a0002466 <DdrInit+0x50c>
	DDR_DLY_DQS2IN = min+2;
    a0002468:	feb44783          	lbu	a5,-21(s0)
    a000246c:	2789                	addiw	a5,a5,2
    a000246e:	0ff7f713          	andi	a4,a5,255
    a0002472:	403007b7          	lui	a5,0x40300
    a0002476:	08078793          	addi	a5,a5,128 # 40300080 <_ftext+0x40300080>
    a000247a:	8b3d                	andi	a4,a4,15
    a000247c:	0ff77713          	andi	a4,a4,255
    a0002480:	8b3d                	andi	a4,a4,15
    a0002482:	0047171b          	slliw	a4,a4,0x4
    a0002486:	4394                	lw	a3,0(a5)
    a0002488:	f0f6f693          	andi	a3,a3,-241
    a000248c:	8f55                	or	a4,a4,a3
    a000248e:	c398                	sw	a4,0(a5)
	_printf("DDR_DLY_DQS2IN : %d\n",DDR_DLY_DQS2IN);
    a0002490:	403007b7          	lui	a5,0x40300
    a0002494:	08078793          	addi	a5,a5,128 # 40300080 <_ftext+0x40300080>
    a0002498:	439c                	lw	a5,0(a5)
    a000249a:	0047d79b          	srliw	a5,a5,0x4
    a000249e:	8bbd                	andi	a5,a5,15
    a00024a0:	0ff7f793          	andi	a5,a5,255
    a00024a4:	2781                	sext.w	a5,a5
    a00024a6:	85be                	mv	a1,a5
    a00024a8:	00003517          	auipc	a0,0x3
    a00024ac:	9c050513          	addi	a0,a0,-1600 # a0004e68 <__text_e+0x1e8>
    a00024b0:	46b010ef          	jal	ra,a000411a <_printf>

	min=15, max=0;
    a00024b4:	47bd                	li	a5,15
    a00024b6:	fef405a3          	sb	a5,-21(s0)
    a00024ba:	fe040523          	sb	zero,-22(s0)
	for(i=0;i<16;i++)
    a00024be:	fe042623          	sw	zero,-20(s0)
    a00024c2:	a841                	j	a0002552 <DdrInit+0x5f8>
	{
		DDR_DLY_DQS3IN = i;
    a00024c4:	403007b7          	lui	a5,0x40300
    a00024c8:	09078793          	addi	a5,a5,144 # 40300090 <_ftext+0x40300090>
    a00024cc:	fec42703          	lw	a4,-20(s0)
    a00024d0:	8b3d                	andi	a4,a4,15
    a00024d2:	0ff77713          	andi	a4,a4,255
    a00024d6:	8b3d                	andi	a4,a4,15
    a00024d8:	0047171b          	slliw	a4,a4,0x4
    a00024dc:	4394                	lw	a3,0(a5)
    a00024de:	f0f6f693          	andi	a3,a3,-241
    a00024e2:	8f55                	or	a4,a4,a3
    a00024e4:	c398                	sw	a4,0(a5)
		char temp = ddr_cal_test();
    a00024e6:	bc4ff0ef          	jal	ra,a00018aa <ddr_cal_test>
    a00024ea:	87aa                	mv	a5,a0
    a00024ec:	fef402a3          	sb	a5,-27(s0)
		if(temp!=0)  _printf("_");
    a00024f0:	fe544783          	lbu	a5,-27(s0)
    a00024f4:	0ff7f793          	andi	a5,a5,255
    a00024f8:	cb81                	beqz	a5,a0002508 <DdrInit+0x5ae>
    a00024fa:	00003517          	auipc	a0,0x3
    a00024fe:	8a650513          	addi	a0,a0,-1882 # a0004da0 <__text_e+0x120>
    a0002502:	419010ef          	jal	ra,a000411a <_printf>
    a0002506:	a089                	j	a0002548 <DdrInit+0x5ee>
		else
		{
			_printf("*");
    a0002508:	00003517          	auipc	a0,0x3
    a000250c:	8a050513          	addi	a0,a0,-1888 # a0004da8 <__text_e+0x128>
    a0002510:	40b010ef          	jal	ra,a000411a <_printf>
			if(min>i) min = i;
    a0002514:	feb44783          	lbu	a5,-21(s0)
    a0002518:	0007871b          	sext.w	a4,a5
    a000251c:	fec42783          	lw	a5,-20(s0)
    a0002520:	2781                	sext.w	a5,a5
    a0002522:	00e7d663          	ble	a4,a5,a000252e <DdrInit+0x5d4>
    a0002526:	fec42783          	lw	a5,-20(s0)
    a000252a:	fef405a3          	sb	a5,-21(s0)
			if(max<i) max = i;
    a000252e:	fea44783          	lbu	a5,-22(s0)
    a0002532:	0007871b          	sext.w	a4,a5
    a0002536:	fec42783          	lw	a5,-20(s0)
    a000253a:	2781                	sext.w	a5,a5
    a000253c:	00f75663          	ble	a5,a4,a0002548 <DdrInit+0x5ee>
    a0002540:	fec42783          	lw	a5,-20(s0)
    a0002544:	fef40523          	sb	a5,-22(s0)
	for(i=0;i<16;i++)
    a0002548:	fec42783          	lw	a5,-20(s0)
    a000254c:	2785                	addiw	a5,a5,1
    a000254e:	fef42623          	sw	a5,-20(s0)
    a0002552:	fec42783          	lw	a5,-20(s0)
    a0002556:	0007871b          	sext.w	a4,a5
    a000255a:	47bd                	li	a5,15
    a000255c:	f6e7d4e3          	ble	a4,a5,a00024c4 <DdrInit+0x56a>
		}
	}
	if(min==15){ _printf("DDR_DLY_DQS3IN FAIL\n"); while(1);}
    a0002560:	feb44783          	lbu	a5,-21(s0)
    a0002564:	0ff7f713          	andi	a4,a5,255
    a0002568:	47bd                	li	a5,15
    a000256a:	00f71963          	bne	a4,a5,a000257c <DdrInit+0x622>
    a000256e:	00003517          	auipc	a0,0x3
    a0002572:	91250513          	addi	a0,a0,-1774 # a0004e80 <__text_e+0x200>
    a0002576:	3a5010ef          	jal	ra,a000411a <_printf>
    a000257a:	a001                	j	a000257a <DdrInit+0x620>
	DDR_DLY_DQS3IN = min+2;
    a000257c:	feb44783          	lbu	a5,-21(s0)
    a0002580:	2789                	addiw	a5,a5,2
    a0002582:	0ff7f713          	andi	a4,a5,255
    a0002586:	403007b7          	lui	a5,0x40300
    a000258a:	09078793          	addi	a5,a5,144 # 40300090 <_ftext+0x40300090>
    a000258e:	8b3d                	andi	a4,a4,15
    a0002590:	0ff77713          	andi	a4,a4,255
    a0002594:	8b3d                	andi	a4,a4,15
    a0002596:	0047171b          	slliw	a4,a4,0x4
    a000259a:	4394                	lw	a3,0(a5)
    a000259c:	f0f6f693          	andi	a3,a3,-241
    a00025a0:	8f55                	or	a4,a4,a3
    a00025a2:	c398                	sw	a4,0(a5)
	DDR_RD_VAL_LTC	= 7;
    a00025a4:	403007b7          	lui	a5,0x40300
    a00025a8:	02878793          	addi	a5,a5,40 # 40300028 <_ftext+0x40300028>
    a00025ac:	4394                	lw	a3,0(a5)
    a00025ae:	7745                	lui	a4,0xffff1
    a00025b0:	177d                	addi	a4,a4,-1
    a00025b2:	8f75                	and	a4,a4,a3
    a00025b4:	86ba                	mv	a3,a4
    a00025b6:	671d                	lui	a4,0x7
    a00025b8:	8f55                	or	a4,a4,a3
    a00025ba:	c398                	sw	a4,0(a5)

	_printf("DDR_DLY_DQS3IN : %d\n",DDR_DLY_DQS3IN);
    a00025bc:	403007b7          	lui	a5,0x40300
    a00025c0:	09078793          	addi	a5,a5,144 # 40300090 <_ftext+0x40300090>
    a00025c4:	439c                	lw	a5,0(a5)
    a00025c6:	0047d79b          	srliw	a5,a5,0x4
    a00025ca:	8bbd                	andi	a5,a5,15
    a00025cc:	0ff7f793          	andi	a5,a5,255
    a00025d0:	2781                	sext.w	a5,a5
    a00025d2:	85be                	mv	a1,a5
    a00025d4:	00003517          	auipc	a0,0x3
    a00025d8:	8c450513          	addi	a0,a0,-1852 # a0004e98 <__text_e+0x218>
    a00025dc:	33f010ef          	jal	ra,a000411a <_printf>

	min=15, max=0;
    a00025e0:	47bd                	li	a5,15
    a00025e2:	fef405a3          	sb	a5,-21(s0)
    a00025e6:	fe040523          	sb	zero,-22(s0)
	for(i=0;i<16;i++)
    a00025ea:	fe042623          	sw	zero,-20(s0)
    a00025ee:	a049                	j	a0002670 <DdrInit+0x716>
	{
		DmOutDly(i);
    a00025f0:	fec42783          	lw	a5,-20(s0)
    a00025f4:	853e                	mv	a0,a5
    a00025f6:	89cff0ef          	jal	ra,a0001692 <DmOutDly>
		DqOutDly(i);
    a00025fa:	fec42783          	lw	a5,-20(s0)
    a00025fe:	853e                	mv	a0,a5
    a0002600:	852ff0ef          	jal	ra,a0001652 <DqOutDly>
		char temp = ddr_rw_test();
    a0002604:	d34ff0ef          	jal	ra,a0001b38 <ddr_rw_test>
    a0002608:	87aa                	mv	a5,a0
    a000260a:	fef40223          	sb	a5,-28(s0)
		if(temp!=0)  _printf("_");
    a000260e:	fe444783          	lbu	a5,-28(s0)
    a0002612:	0ff7f793          	andi	a5,a5,255
    a0002616:	cb81                	beqz	a5,a0002626 <DdrInit+0x6cc>
    a0002618:	00002517          	auipc	a0,0x2
    a000261c:	78850513          	addi	a0,a0,1928 # a0004da0 <__text_e+0x120>
    a0002620:	2fb010ef          	jal	ra,a000411a <_printf>
    a0002624:	a089                	j	a0002666 <DdrInit+0x70c>
		else
		{
			_printf("*");
    a0002626:	00002517          	auipc	a0,0x2
    a000262a:	78250513          	addi	a0,a0,1922 # a0004da8 <__text_e+0x128>
    a000262e:	2ed010ef          	jal	ra,a000411a <_printf>
			if(min>i) min = i;
    a0002632:	feb44783          	lbu	a5,-21(s0)
    a0002636:	0007871b          	sext.w	a4,a5
    a000263a:	fec42783          	lw	a5,-20(s0)
    a000263e:	2781                	sext.w	a5,a5
    a0002640:	00e7d663          	ble	a4,a5,a000264c <DdrInit+0x6f2>
    a0002644:	fec42783          	lw	a5,-20(s0)
    a0002648:	fef405a3          	sb	a5,-21(s0)
			if(max<i) max = i;
    a000264c:	fea44783          	lbu	a5,-22(s0)
    a0002650:	0007871b          	sext.w	a4,a5
    a0002654:	fec42783          	lw	a5,-20(s0)
    a0002658:	2781                	sext.w	a5,a5
    a000265a:	00f75663          	ble	a5,a4,a0002666 <DdrInit+0x70c>
    a000265e:	fec42783          	lw	a5,-20(s0)
    a0002662:	fef40523          	sb	a5,-22(s0)
	for(i=0;i<16;i++)
    a0002666:	fec42783          	lw	a5,-20(s0)
    a000266a:	2785                	addiw	a5,a5,1
    a000266c:	fef42623          	sw	a5,-20(s0)
    a0002670:	fec42783          	lw	a5,-20(s0)
    a0002674:	0007871b          	sext.w	a4,a5
    a0002678:	47bd                	li	a5,15
    a000267a:	f6e7dbe3          	ble	a4,a5,a00025f0 <DdrInit+0x696>
		}
	}
	if(min==15){ _printf("DDR_DMDQ_OUT FAIL\n"); while(1);}
    a000267e:	feb44783          	lbu	a5,-21(s0)
    a0002682:	0ff7f713          	andi	a4,a5,255
    a0002686:	47bd                	li	a5,15
    a0002688:	00f71963          	bne	a4,a5,a000269a <DdrInit+0x740>
    a000268c:	00003517          	auipc	a0,0x3
    a0002690:	82450513          	addi	a0,a0,-2012 # a0004eb0 <__text_e+0x230>
    a0002694:	287010ef          	jal	ra,a000411a <_printf>
    a0002698:	a001                	j	a0002698 <DdrInit+0x73e>
	DmOutDly(min+2);
    a000269a:	feb44783          	lbu	a5,-21(s0)
    a000269e:	2781                	sext.w	a5,a5
    a00026a0:	2789                	addiw	a5,a5,2
    a00026a2:	2781                	sext.w	a5,a5
    a00026a4:	2781                	sext.w	a5,a5
    a00026a6:	853e                	mv	a0,a5
    a00026a8:	febfe0ef          	jal	ra,a0001692 <DmOutDly>
	DqOutDly(min+2);
    a00026ac:	feb44783          	lbu	a5,-21(s0)
    a00026b0:	2781                	sext.w	a5,a5
    a00026b2:	2789                	addiw	a5,a5,2
    a00026b4:	2781                	sext.w	a5,a5
    a00026b6:	2781                	sext.w	a5,a5
    a00026b8:	853e                	mv	a0,a5
    a00026ba:	f99fe0ef          	jal	ra,a0001652 <DqOutDly>
	_printf("DDR_DMDQ_OUT : %d\n",min+2);
    a00026be:	feb44783          	lbu	a5,-21(s0)
    a00026c2:	2781                	sext.w	a5,a5
    a00026c4:	2789                	addiw	a5,a5,2
    a00026c6:	2781                	sext.w	a5,a5
    a00026c8:	85be                	mv	a1,a5
    a00026ca:	00002517          	auipc	a0,0x2
    a00026ce:	7fe50513          	addi	a0,a0,2046 # a0004ec8 <__text_e+0x248>
    a00026d2:	249010ef          	jal	ra,a000411a <_printf>

	min=15, max=0;
    a00026d6:	47bd                	li	a5,15
    a00026d8:	fef405a3          	sb	a5,-21(s0)
    a00026dc:	fe040523          	sb	zero,-22(s0)
	for(i=0;i<16;i++)
    a00026e0:	fe042623          	sw	zero,-20(s0)
    a00026e4:	a841                	j	a0002774 <DdrInit+0x81a>
	{
		DDR_DLY_DM0OUT = i;
    a00026e6:	403007b7          	lui	a5,0x40300
    a00026ea:	06078793          	addi	a5,a5,96 # 40300060 <_ftext+0x40300060>
    a00026ee:	fec42703          	lw	a4,-20(s0)
    a00026f2:	8b3d                	andi	a4,a4,15
    a00026f4:	0ff77713          	andi	a4,a4,255
    a00026f8:	00f77613          	andi	a2,a4,15
    a00026fc:	4398                	lw	a4,0(a5)
    a00026fe:	9b41                	andi	a4,a4,-16
    a0002700:	86ba                	mv	a3,a4
    a0002702:	8732                	mv	a4,a2
    a0002704:	8f55                	or	a4,a4,a3
    a0002706:	c398                	sw	a4,0(a5)
		char temp = ddr_rw_test();
    a0002708:	c30ff0ef          	jal	ra,a0001b38 <ddr_rw_test>
    a000270c:	87aa                	mv	a5,a0
    a000270e:	fef401a3          	sb	a5,-29(s0)
		if(temp!=0)  _printf("_");
    a0002712:	fe344783          	lbu	a5,-29(s0)
    a0002716:	0ff7f793          	andi	a5,a5,255
    a000271a:	cb81                	beqz	a5,a000272a <DdrInit+0x7d0>
    a000271c:	00002517          	auipc	a0,0x2
    a0002720:	68450513          	addi	a0,a0,1668 # a0004da0 <__text_e+0x120>
    a0002724:	1f7010ef          	jal	ra,a000411a <_printf>
    a0002728:	a089                	j	a000276a <DdrInit+0x810>
		else
		{
			_printf("*");
    a000272a:	00002517          	auipc	a0,0x2
    a000272e:	67e50513          	addi	a0,a0,1662 # a0004da8 <__text_e+0x128>
    a0002732:	1e9010ef          	jal	ra,a000411a <_printf>
			if(min>i) min = i;
    a0002736:	feb44783          	lbu	a5,-21(s0)
    a000273a:	0007871b          	sext.w	a4,a5
    a000273e:	fec42783          	lw	a5,-20(s0)
    a0002742:	2781                	sext.w	a5,a5
    a0002744:	00e7d663          	ble	a4,a5,a0002750 <DdrInit+0x7f6>
    a0002748:	fec42783          	lw	a5,-20(s0)
    a000274c:	fef405a3          	sb	a5,-21(s0)
			if(max<i) max = i;
    a0002750:	fea44783          	lbu	a5,-22(s0)
    a0002754:	0007871b          	sext.w	a4,a5
    a0002758:	fec42783          	lw	a5,-20(s0)
    a000275c:	2781                	sext.w	a5,a5
    a000275e:	00f75663          	ble	a5,a4,a000276a <DdrInit+0x810>
    a0002762:	fec42783          	lw	a5,-20(s0)
    a0002766:	fef40523          	sb	a5,-22(s0)
	for(i=0;i<16;i++)
    a000276a:	fec42783          	lw	a5,-20(s0)
    a000276e:	2785                	addiw	a5,a5,1
    a0002770:	fef42623          	sw	a5,-20(s0)
    a0002774:	fec42783          	lw	a5,-20(s0)
    a0002778:	0007871b          	sext.w	a4,a5
    a000277c:	47bd                	li	a5,15
    a000277e:	f6e7d4e3          	ble	a4,a5,a00026e6 <DdrInit+0x78c>
		}
	}
	DDR_DLY_DM0OUT = min+2;
    a0002782:	feb44783          	lbu	a5,-21(s0)
    a0002786:	2789                	addiw	a5,a5,2
    a0002788:	0ff7f713          	andi	a4,a5,255
    a000278c:	403007b7          	lui	a5,0x40300
    a0002790:	06078793          	addi	a5,a5,96 # 40300060 <_ftext+0x40300060>
    a0002794:	8b3d                	andi	a4,a4,15
    a0002796:	0ff77713          	andi	a4,a4,255
    a000279a:	00f77613          	andi	a2,a4,15
    a000279e:	4398                	lw	a4,0(a5)
    a00027a0:	9b41                	andi	a4,a4,-16
    a00027a2:	86ba                	mv	a3,a4
    a00027a4:	8732                	mv	a4,a2
    a00027a6:	8f55                	or	a4,a4,a3
    a00027a8:	c398                	sw	a4,0(a5)
	_printf("DDR_DLY_DM0OUT : %d\n",DDR_DLY_DM0OUT);
    a00027aa:	403007b7          	lui	a5,0x40300
    a00027ae:	06078793          	addi	a5,a5,96 # 40300060 <_ftext+0x40300060>
    a00027b2:	439c                	lw	a5,0(a5)
    a00027b4:	8bbd                	andi	a5,a5,15
    a00027b6:	0ff7f793          	andi	a5,a5,255
    a00027ba:	2781                	sext.w	a5,a5
    a00027bc:	85be                	mv	a1,a5
    a00027be:	00002517          	auipc	a0,0x2
    a00027c2:	72250513          	addi	a0,a0,1826 # a0004ee0 <__text_e+0x260>
    a00027c6:	155010ef          	jal	ra,a000411a <_printf>

	min=15, max=0;
    a00027ca:	47bd                	li	a5,15
    a00027cc:	fef405a3          	sb	a5,-21(s0)
    a00027d0:	fe040523          	sb	zero,-22(s0)
	for(i=0;i<16;i++)
    a00027d4:	fe042623          	sw	zero,-20(s0)
    a00027d8:	a841                	j	a0002868 <DdrInit+0x90e>
	{
		DDR_DLY_DM1OUT = i;
    a00027da:	403007b7          	lui	a5,0x40300
    a00027de:	07078793          	addi	a5,a5,112 # 40300070 <_ftext+0x40300070>
    a00027e2:	fec42703          	lw	a4,-20(s0)
    a00027e6:	8b3d                	andi	a4,a4,15
    a00027e8:	0ff77713          	andi	a4,a4,255
    a00027ec:	00f77613          	andi	a2,a4,15
    a00027f0:	4398                	lw	a4,0(a5)
    a00027f2:	9b41                	andi	a4,a4,-16
    a00027f4:	86ba                	mv	a3,a4
    a00027f6:	8732                	mv	a4,a2
    a00027f8:	8f55                	or	a4,a4,a3
    a00027fa:	c398                	sw	a4,0(a5)
		char temp = ddr_rw_test();
    a00027fc:	b3cff0ef          	jal	ra,a0001b38 <ddr_rw_test>
    a0002800:	87aa                	mv	a5,a0
    a0002802:	fef40123          	sb	a5,-30(s0)
		if(temp!=0)  _printf("_");
    a0002806:	fe244783          	lbu	a5,-30(s0)
    a000280a:	0ff7f793          	andi	a5,a5,255
    a000280e:	cb81                	beqz	a5,a000281e <DdrInit+0x8c4>
    a0002810:	00002517          	auipc	a0,0x2
    a0002814:	59050513          	addi	a0,a0,1424 # a0004da0 <__text_e+0x120>
    a0002818:	103010ef          	jal	ra,a000411a <_printf>
    a000281c:	a089                	j	a000285e <DdrInit+0x904>
		else
		{
			_printf("*");
    a000281e:	00002517          	auipc	a0,0x2
    a0002822:	58a50513          	addi	a0,a0,1418 # a0004da8 <__text_e+0x128>
    a0002826:	0f5010ef          	jal	ra,a000411a <_printf>
			if(min>i) min = i;
    a000282a:	feb44783          	lbu	a5,-21(s0)
    a000282e:	0007871b          	sext.w	a4,a5
    a0002832:	fec42783          	lw	a5,-20(s0)
    a0002836:	2781                	sext.w	a5,a5
    a0002838:	00e7d663          	ble	a4,a5,a0002844 <DdrInit+0x8ea>
    a000283c:	fec42783          	lw	a5,-20(s0)
    a0002840:	fef405a3          	sb	a5,-21(s0)
			if(max<i) max = i;
    a0002844:	fea44783          	lbu	a5,-22(s0)
    a0002848:	0007871b          	sext.w	a4,a5
    a000284c:	fec42783          	lw	a5,-20(s0)
    a0002850:	2781                	sext.w	a5,a5
    a0002852:	00f75663          	ble	a5,a4,a000285e <DdrInit+0x904>
    a0002856:	fec42783          	lw	a5,-20(s0)
    a000285a:	fef40523          	sb	a5,-22(s0)
	for(i=0;i<16;i++)
    a000285e:	fec42783          	lw	a5,-20(s0)
    a0002862:	2785                	addiw	a5,a5,1
    a0002864:	fef42623          	sw	a5,-20(s0)
    a0002868:	fec42783          	lw	a5,-20(s0)
    a000286c:	0007871b          	sext.w	a4,a5
    a0002870:	47bd                	li	a5,15
    a0002872:	f6e7d4e3          	ble	a4,a5,a00027da <DdrInit+0x880>
		}
	}
	DDR_DLY_DM1OUT = min+2;
    a0002876:	feb44783          	lbu	a5,-21(s0)
    a000287a:	2789                	addiw	a5,a5,2
    a000287c:	0ff7f713          	andi	a4,a5,255
    a0002880:	403007b7          	lui	a5,0x40300
    a0002884:	07078793          	addi	a5,a5,112 # 40300070 <_ftext+0x40300070>
    a0002888:	8b3d                	andi	a4,a4,15
    a000288a:	0ff77713          	andi	a4,a4,255
    a000288e:	00f77613          	andi	a2,a4,15
    a0002892:	4398                	lw	a4,0(a5)
    a0002894:	9b41                	andi	a4,a4,-16
    a0002896:	86ba                	mv	a3,a4
    a0002898:	8732                	mv	a4,a2
    a000289a:	8f55                	or	a4,a4,a3
    a000289c:	c398                	sw	a4,0(a5)
	_printf("DDR_DLY_DM1OUT : %d\n",DDR_DLY_DM1OUT);
    a000289e:	403007b7          	lui	a5,0x40300
    a00028a2:	07078793          	addi	a5,a5,112 # 40300070 <_ftext+0x40300070>
    a00028a6:	439c                	lw	a5,0(a5)
    a00028a8:	8bbd                	andi	a5,a5,15
    a00028aa:	0ff7f793          	andi	a5,a5,255
    a00028ae:	2781                	sext.w	a5,a5
    a00028b0:	85be                	mv	a1,a5
    a00028b2:	00002517          	auipc	a0,0x2
    a00028b6:	64650513          	addi	a0,a0,1606 # a0004ef8 <__text_e+0x278>
    a00028ba:	061010ef          	jal	ra,a000411a <_printf>
	min=15, max=0;
    a00028be:	47bd                	li	a5,15
    a00028c0:	fef405a3          	sb	a5,-21(s0)
    a00028c4:	fe040523          	sb	zero,-22(s0)
	for(i=0;i<16;i++)
    a00028c8:	fe042623          	sw	zero,-20(s0)
    a00028cc:	a841                	j	a000295c <DdrInit+0xa02>
	{
		DDR_DLY_DM2OUT = i;
    a00028ce:	403007b7          	lui	a5,0x40300
    a00028d2:	08078793          	addi	a5,a5,128 # 40300080 <_ftext+0x40300080>
    a00028d6:	fec42703          	lw	a4,-20(s0)
    a00028da:	8b3d                	andi	a4,a4,15
    a00028dc:	0ff77713          	andi	a4,a4,255
    a00028e0:	00f77613          	andi	a2,a4,15
    a00028e4:	4398                	lw	a4,0(a5)
    a00028e6:	9b41                	andi	a4,a4,-16
    a00028e8:	86ba                	mv	a3,a4
    a00028ea:	8732                	mv	a4,a2
    a00028ec:	8f55                	or	a4,a4,a3
    a00028ee:	c398                	sw	a4,0(a5)
		char temp = ddr_rw_test();
    a00028f0:	a48ff0ef          	jal	ra,a0001b38 <ddr_rw_test>
    a00028f4:	87aa                	mv	a5,a0
    a00028f6:	fef400a3          	sb	a5,-31(s0)
		if(temp!=0)  _printf("_");
    a00028fa:	fe144783          	lbu	a5,-31(s0)
    a00028fe:	0ff7f793          	andi	a5,a5,255
    a0002902:	cb81                	beqz	a5,a0002912 <DdrInit+0x9b8>
    a0002904:	00002517          	auipc	a0,0x2
    a0002908:	49c50513          	addi	a0,a0,1180 # a0004da0 <__text_e+0x120>
    a000290c:	00f010ef          	jal	ra,a000411a <_printf>
    a0002910:	a089                	j	a0002952 <DdrInit+0x9f8>
		else
		{
			_printf("*");
    a0002912:	00002517          	auipc	a0,0x2
    a0002916:	49650513          	addi	a0,a0,1174 # a0004da8 <__text_e+0x128>
    a000291a:	001010ef          	jal	ra,a000411a <_printf>
			if(min>i) min = i;
    a000291e:	feb44783          	lbu	a5,-21(s0)
    a0002922:	0007871b          	sext.w	a4,a5
    a0002926:	fec42783          	lw	a5,-20(s0)
    a000292a:	2781                	sext.w	a5,a5
    a000292c:	00e7d663          	ble	a4,a5,a0002938 <DdrInit+0x9de>
    a0002930:	fec42783          	lw	a5,-20(s0)
    a0002934:	fef405a3          	sb	a5,-21(s0)
			if(max<i) max = i;
    a0002938:	fea44783          	lbu	a5,-22(s0)
    a000293c:	0007871b          	sext.w	a4,a5
    a0002940:	fec42783          	lw	a5,-20(s0)
    a0002944:	2781                	sext.w	a5,a5
    a0002946:	00f75663          	ble	a5,a4,a0002952 <DdrInit+0x9f8>
    a000294a:	fec42783          	lw	a5,-20(s0)
    a000294e:	fef40523          	sb	a5,-22(s0)
	for(i=0;i<16;i++)
    a0002952:	fec42783          	lw	a5,-20(s0)
    a0002956:	2785                	addiw	a5,a5,1
    a0002958:	fef42623          	sw	a5,-20(s0)
    a000295c:	fec42783          	lw	a5,-20(s0)
    a0002960:	0007871b          	sext.w	a4,a5
    a0002964:	47bd                	li	a5,15
    a0002966:	f6e7d4e3          	ble	a4,a5,a00028ce <DdrInit+0x974>
		}
	}
	DDR_DLY_DM2OUT = min+2;
    a000296a:	feb44783          	lbu	a5,-21(s0)
    a000296e:	2789                	addiw	a5,a5,2
    a0002970:	0ff7f713          	andi	a4,a5,255
    a0002974:	403007b7          	lui	a5,0x40300
    a0002978:	08078793          	addi	a5,a5,128 # 40300080 <_ftext+0x40300080>
    a000297c:	8b3d                	andi	a4,a4,15
    a000297e:	0ff77713          	andi	a4,a4,255
    a0002982:	00f77613          	andi	a2,a4,15
    a0002986:	4398                	lw	a4,0(a5)
    a0002988:	9b41                	andi	a4,a4,-16
    a000298a:	86ba                	mv	a3,a4
    a000298c:	8732                	mv	a4,a2
    a000298e:	8f55                	or	a4,a4,a3
    a0002990:	c398                	sw	a4,0(a5)
	_printf("DDR_DLY_DM2OUT : %d\n",DDR_DLY_DM2OUT);
    a0002992:	403007b7          	lui	a5,0x40300
    a0002996:	08078793          	addi	a5,a5,128 # 40300080 <_ftext+0x40300080>
    a000299a:	439c                	lw	a5,0(a5)
    a000299c:	8bbd                	andi	a5,a5,15
    a000299e:	0ff7f793          	andi	a5,a5,255
    a00029a2:	2781                	sext.w	a5,a5
    a00029a4:	85be                	mv	a1,a5
    a00029a6:	00002517          	auipc	a0,0x2
    a00029aa:	56a50513          	addi	a0,a0,1386 # a0004f10 <__text_e+0x290>
    a00029ae:	76c010ef          	jal	ra,a000411a <_printf>
	min=15, max=0;
    a00029b2:	47bd                	li	a5,15
    a00029b4:	fef405a3          	sb	a5,-21(s0)
    a00029b8:	fe040523          	sb	zero,-22(s0)
	for(i=0;i<16;i++)
    a00029bc:	fe042623          	sw	zero,-20(s0)
    a00029c0:	a841                	j	a0002a50 <DdrInit+0xaf6>
	{
		DDR_DLY_DM3OUT = i;
    a00029c2:	403007b7          	lui	a5,0x40300
    a00029c6:	09078793          	addi	a5,a5,144 # 40300090 <_ftext+0x40300090>
    a00029ca:	fec42703          	lw	a4,-20(s0)
    a00029ce:	8b3d                	andi	a4,a4,15
    a00029d0:	0ff77713          	andi	a4,a4,255
    a00029d4:	00f77613          	andi	a2,a4,15
    a00029d8:	4398                	lw	a4,0(a5)
    a00029da:	9b41                	andi	a4,a4,-16
    a00029dc:	86ba                	mv	a3,a4
    a00029de:	8732                	mv	a4,a2
    a00029e0:	8f55                	or	a4,a4,a3
    a00029e2:	c398                	sw	a4,0(a5)
		char temp = ddr_rw_test();
    a00029e4:	954ff0ef          	jal	ra,a0001b38 <ddr_rw_test>
    a00029e8:	87aa                	mv	a5,a0
    a00029ea:	fef40023          	sb	a5,-32(s0)
		if(temp!=0)  _printf("_");
    a00029ee:	fe044783          	lbu	a5,-32(s0)
    a00029f2:	0ff7f793          	andi	a5,a5,255
    a00029f6:	cb81                	beqz	a5,a0002a06 <DdrInit+0xaac>
    a00029f8:	00002517          	auipc	a0,0x2
    a00029fc:	3a850513          	addi	a0,a0,936 # a0004da0 <__text_e+0x120>
    a0002a00:	71a010ef          	jal	ra,a000411a <_printf>
    a0002a04:	a089                	j	a0002a46 <DdrInit+0xaec>
		else
		{
			_printf("*");
    a0002a06:	00002517          	auipc	a0,0x2
    a0002a0a:	3a250513          	addi	a0,a0,930 # a0004da8 <__text_e+0x128>
    a0002a0e:	70c010ef          	jal	ra,a000411a <_printf>
			if(min>i) min = i;
    a0002a12:	feb44783          	lbu	a5,-21(s0)
    a0002a16:	0007871b          	sext.w	a4,a5
    a0002a1a:	fec42783          	lw	a5,-20(s0)
    a0002a1e:	2781                	sext.w	a5,a5
    a0002a20:	00e7d663          	ble	a4,a5,a0002a2c <DdrInit+0xad2>
    a0002a24:	fec42783          	lw	a5,-20(s0)
    a0002a28:	fef405a3          	sb	a5,-21(s0)
			if(max<i) max = i;
    a0002a2c:	fea44783          	lbu	a5,-22(s0)
    a0002a30:	0007871b          	sext.w	a4,a5
    a0002a34:	fec42783          	lw	a5,-20(s0)
    a0002a38:	2781                	sext.w	a5,a5
    a0002a3a:	00f75663          	ble	a5,a4,a0002a46 <DdrInit+0xaec>
    a0002a3e:	fec42783          	lw	a5,-20(s0)
    a0002a42:	fef40523          	sb	a5,-22(s0)
	for(i=0;i<16;i++)
    a0002a46:	fec42783          	lw	a5,-20(s0)
    a0002a4a:	2785                	addiw	a5,a5,1
    a0002a4c:	fef42623          	sw	a5,-20(s0)
    a0002a50:	fec42783          	lw	a5,-20(s0)
    a0002a54:	0007871b          	sext.w	a4,a5
    a0002a58:	47bd                	li	a5,15
    a0002a5a:	f6e7d4e3          	ble	a4,a5,a00029c2 <DdrInit+0xa68>
		}
	}
	DDR_DLY_DM3OUT = min+2;
    a0002a5e:	feb44783          	lbu	a5,-21(s0)
    a0002a62:	2789                	addiw	a5,a5,2
    a0002a64:	0ff7f713          	andi	a4,a5,255
    a0002a68:	403007b7          	lui	a5,0x40300
    a0002a6c:	09078793          	addi	a5,a5,144 # 40300090 <_ftext+0x40300090>
    a0002a70:	8b3d                	andi	a4,a4,15
    a0002a72:	0ff77713          	andi	a4,a4,255
    a0002a76:	00f77613          	andi	a2,a4,15
    a0002a7a:	4398                	lw	a4,0(a5)
    a0002a7c:	9b41                	andi	a4,a4,-16
    a0002a7e:	86ba                	mv	a3,a4
    a0002a80:	8732                	mv	a4,a2
    a0002a82:	8f55                	or	a4,a4,a3
    a0002a84:	c398                	sw	a4,0(a5)
	_printf("DDR_DLY_DM3OUT : %d\n",DDR_DLY_DM3OUT);
    a0002a86:	403007b7          	lui	a5,0x40300
    a0002a8a:	09078793          	addi	a5,a5,144 # 40300090 <_ftext+0x40300090>
    a0002a8e:	439c                	lw	a5,0(a5)
    a0002a90:	8bbd                	andi	a5,a5,15
    a0002a92:	0ff7f793          	andi	a5,a5,255
    a0002a96:	2781                	sext.w	a5,a5
    a0002a98:	85be                	mv	a1,a5
    a0002a9a:	00002517          	auipc	a0,0x2
    a0002a9e:	48e50513          	addi	a0,a0,1166 # a0004f28 <__text_e+0x2a8>
    a0002aa2:	678010ef          	jal	ra,a000411a <_printf>

	min=15, max=0;
    a0002aa6:	47bd                	li	a5,15
    a0002aa8:	fef405a3          	sb	a5,-21(s0)
    a0002aac:	fe040523          	sb	zero,-22(s0)
	for(i=0;i<16;i++)
    a0002ab0:	fe042623          	sw	zero,-20(s0)
    a0002ab4:	a8a5                	j	a0002b2c <DdrInit+0xbd2>
	{
		DqG0OutDly(i);
    a0002ab6:	fec42783          	lw	a5,-20(s0)
    a0002aba:	853e                	mv	a0,a5
    a0002abc:	eb6fe0ef          	jal	ra,a0001172 <DqG0OutDly>
		char temp = ddr_rw_test();
    a0002ac0:	878ff0ef          	jal	ra,a0001b38 <ddr_rw_test>
    a0002ac4:	87aa                	mv	a5,a0
    a0002ac6:	fcf40fa3          	sb	a5,-33(s0)
		if(temp!=0)  _printf("_");
    a0002aca:	fdf44783          	lbu	a5,-33(s0)
    a0002ace:	0ff7f793          	andi	a5,a5,255
    a0002ad2:	cb81                	beqz	a5,a0002ae2 <DdrInit+0xb88>
    a0002ad4:	00002517          	auipc	a0,0x2
    a0002ad8:	2cc50513          	addi	a0,a0,716 # a0004da0 <__text_e+0x120>
    a0002adc:	63e010ef          	jal	ra,a000411a <_printf>
    a0002ae0:	a089                	j	a0002b22 <DdrInit+0xbc8>
		else
		{
			_printf("*");
    a0002ae2:	00002517          	auipc	a0,0x2
    a0002ae6:	2c650513          	addi	a0,a0,710 # a0004da8 <__text_e+0x128>
    a0002aea:	630010ef          	jal	ra,a000411a <_printf>
			if(min>i) min = i;
    a0002aee:	feb44783          	lbu	a5,-21(s0)
    a0002af2:	0007871b          	sext.w	a4,a5
    a0002af6:	fec42783          	lw	a5,-20(s0)
    a0002afa:	2781                	sext.w	a5,a5
    a0002afc:	00e7d663          	ble	a4,a5,a0002b08 <DdrInit+0xbae>
    a0002b00:	fec42783          	lw	a5,-20(s0)
    a0002b04:	fef405a3          	sb	a5,-21(s0)
			if(max<i) max = i;
    a0002b08:	fea44783          	lbu	a5,-22(s0)
    a0002b0c:	0007871b          	sext.w	a4,a5
    a0002b10:	fec42783          	lw	a5,-20(s0)
    a0002b14:	2781                	sext.w	a5,a5
    a0002b16:	00f75663          	ble	a5,a4,a0002b22 <DdrInit+0xbc8>
    a0002b1a:	fec42783          	lw	a5,-20(s0)
    a0002b1e:	fef40523          	sb	a5,-22(s0)
	for(i=0;i<16;i++)
    a0002b22:	fec42783          	lw	a5,-20(s0)
    a0002b26:	2785                	addiw	a5,a5,1
    a0002b28:	fef42623          	sw	a5,-20(s0)
    a0002b2c:	fec42783          	lw	a5,-20(s0)
    a0002b30:	0007871b          	sext.w	a4,a5
    a0002b34:	47bd                	li	a5,15
    a0002b36:	f8e7d0e3          	ble	a4,a5,a0002ab6 <DdrInit+0xb5c>
		}
	}
	DqG0OutDly(min+2);
    a0002b3a:	feb44783          	lbu	a5,-21(s0)
    a0002b3e:	2781                	sext.w	a5,a5
    a0002b40:	2789                	addiw	a5,a5,2
    a0002b42:	2781                	sext.w	a5,a5
    a0002b44:	2781                	sext.w	a5,a5
    a0002b46:	853e                	mv	a0,a5
    a0002b48:	e2afe0ef          	jal	ra,a0001172 <DqG0OutDly>
	_printf("DDR_DQG0_OUT : %d\n",min+2);
    a0002b4c:	feb44783          	lbu	a5,-21(s0)
    a0002b50:	2781                	sext.w	a5,a5
    a0002b52:	2789                	addiw	a5,a5,2
    a0002b54:	2781                	sext.w	a5,a5
    a0002b56:	85be                	mv	a1,a5
    a0002b58:	00002517          	auipc	a0,0x2
    a0002b5c:	3e850513          	addi	a0,a0,1000 # a0004f40 <__text_e+0x2c0>
    a0002b60:	5ba010ef          	jal	ra,a000411a <_printf>
	min=15, max=0;
    a0002b64:	47bd                	li	a5,15
    a0002b66:	fef405a3          	sb	a5,-21(s0)
    a0002b6a:	fe040523          	sb	zero,-22(s0)
	for(i=0;i<16;i++)
    a0002b6e:	fe042623          	sw	zero,-20(s0)
    a0002b72:	a8a5                	j	a0002bea <DdrInit+0xc90>
	{
		DqG1OutDly(i);
    a0002b74:	fec42783          	lw	a5,-20(s0)
    a0002b78:	853e                	mv	a0,a5
    a0002b7a:	f30fe0ef          	jal	ra,a00012aa <DqG1OutDly>
		char temp = ddr_rw_test();
    a0002b7e:	fbbfe0ef          	jal	ra,a0001b38 <ddr_rw_test>
    a0002b82:	87aa                	mv	a5,a0
    a0002b84:	fcf40f23          	sb	a5,-34(s0)
		if(temp!=0)  _printf("_");
    a0002b88:	fde44783          	lbu	a5,-34(s0)
    a0002b8c:	0ff7f793          	andi	a5,a5,255
    a0002b90:	cb81                	beqz	a5,a0002ba0 <DdrInit+0xc46>
    a0002b92:	00002517          	auipc	a0,0x2
    a0002b96:	20e50513          	addi	a0,a0,526 # a0004da0 <__text_e+0x120>
    a0002b9a:	580010ef          	jal	ra,a000411a <_printf>
    a0002b9e:	a089                	j	a0002be0 <DdrInit+0xc86>
		else
		{
			_printf("*");
    a0002ba0:	00002517          	auipc	a0,0x2
    a0002ba4:	20850513          	addi	a0,a0,520 # a0004da8 <__text_e+0x128>
    a0002ba8:	572010ef          	jal	ra,a000411a <_printf>
			if(min>i) min = i;
    a0002bac:	feb44783          	lbu	a5,-21(s0)
    a0002bb0:	0007871b          	sext.w	a4,a5
    a0002bb4:	fec42783          	lw	a5,-20(s0)
    a0002bb8:	2781                	sext.w	a5,a5
    a0002bba:	00e7d663          	ble	a4,a5,a0002bc6 <DdrInit+0xc6c>
    a0002bbe:	fec42783          	lw	a5,-20(s0)
    a0002bc2:	fef405a3          	sb	a5,-21(s0)
			if(max<i) max = i;
    a0002bc6:	fea44783          	lbu	a5,-22(s0)
    a0002bca:	0007871b          	sext.w	a4,a5
    a0002bce:	fec42783          	lw	a5,-20(s0)
    a0002bd2:	2781                	sext.w	a5,a5
    a0002bd4:	00f75663          	ble	a5,a4,a0002be0 <DdrInit+0xc86>
    a0002bd8:	fec42783          	lw	a5,-20(s0)
    a0002bdc:	fef40523          	sb	a5,-22(s0)
	for(i=0;i<16;i++)
    a0002be0:	fec42783          	lw	a5,-20(s0)
    a0002be4:	2785                	addiw	a5,a5,1
    a0002be6:	fef42623          	sw	a5,-20(s0)
    a0002bea:	fec42783          	lw	a5,-20(s0)
    a0002bee:	0007871b          	sext.w	a4,a5
    a0002bf2:	47bd                	li	a5,15
    a0002bf4:	f8e7d0e3          	ble	a4,a5,a0002b74 <DdrInit+0xc1a>
		}
	}
	DqG1OutDly(min+2);
    a0002bf8:	feb44783          	lbu	a5,-21(s0)
    a0002bfc:	2781                	sext.w	a5,a5
    a0002bfe:	2789                	addiw	a5,a5,2
    a0002c00:	2781                	sext.w	a5,a5
    a0002c02:	2781                	sext.w	a5,a5
    a0002c04:	853e                	mv	a0,a5
    a0002c06:	ea4fe0ef          	jal	ra,a00012aa <DqG1OutDly>
	_printf("DDR_DQG1_OUT : %d\n",min+2);
    a0002c0a:	feb44783          	lbu	a5,-21(s0)
    a0002c0e:	2781                	sext.w	a5,a5
    a0002c10:	2789                	addiw	a5,a5,2
    a0002c12:	2781                	sext.w	a5,a5
    a0002c14:	85be                	mv	a1,a5
    a0002c16:	00002517          	auipc	a0,0x2
    a0002c1a:	34250513          	addi	a0,a0,834 # a0004f58 <__text_e+0x2d8>
    a0002c1e:	4fc010ef          	jal	ra,a000411a <_printf>
	min=15, max=0;
    a0002c22:	47bd                	li	a5,15
    a0002c24:	fef405a3          	sb	a5,-21(s0)
    a0002c28:	fe040523          	sb	zero,-22(s0)
	for(i=0;i<16;i++)
    a0002c2c:	fe042623          	sw	zero,-20(s0)
    a0002c30:	a8a5                	j	a0002ca8 <DdrInit+0xd4e>
	{
		DqG2OutDly(i);
    a0002c32:	fec42783          	lw	a5,-20(s0)
    a0002c36:	853e                	mv	a0,a5
    a0002c38:	faafe0ef          	jal	ra,a00013e2 <DqG2OutDly>
		char temp = ddr_rw_test();
    a0002c3c:	efdfe0ef          	jal	ra,a0001b38 <ddr_rw_test>
    a0002c40:	87aa                	mv	a5,a0
    a0002c42:	fcf40ea3          	sb	a5,-35(s0)
		if(temp!=0)  _printf("_");
    a0002c46:	fdd44783          	lbu	a5,-35(s0)
    a0002c4a:	0ff7f793          	andi	a5,a5,255
    a0002c4e:	cb81                	beqz	a5,a0002c5e <DdrInit+0xd04>
    a0002c50:	00002517          	auipc	a0,0x2
    a0002c54:	15050513          	addi	a0,a0,336 # a0004da0 <__text_e+0x120>
    a0002c58:	4c2010ef          	jal	ra,a000411a <_printf>
    a0002c5c:	a089                	j	a0002c9e <DdrInit+0xd44>
		else
		{
			_printf("*");
    a0002c5e:	00002517          	auipc	a0,0x2
    a0002c62:	14a50513          	addi	a0,a0,330 # a0004da8 <__text_e+0x128>
    a0002c66:	4b4010ef          	jal	ra,a000411a <_printf>
			if(min>i) min = i;
    a0002c6a:	feb44783          	lbu	a5,-21(s0)
    a0002c6e:	0007871b          	sext.w	a4,a5
    a0002c72:	fec42783          	lw	a5,-20(s0)
    a0002c76:	2781                	sext.w	a5,a5
    a0002c78:	00e7d663          	ble	a4,a5,a0002c84 <DdrInit+0xd2a>
    a0002c7c:	fec42783          	lw	a5,-20(s0)
    a0002c80:	fef405a3          	sb	a5,-21(s0)
			if(max<i) max = i;
    a0002c84:	fea44783          	lbu	a5,-22(s0)
    a0002c88:	0007871b          	sext.w	a4,a5
    a0002c8c:	fec42783          	lw	a5,-20(s0)
    a0002c90:	2781                	sext.w	a5,a5
    a0002c92:	00f75663          	ble	a5,a4,a0002c9e <DdrInit+0xd44>
    a0002c96:	fec42783          	lw	a5,-20(s0)
    a0002c9a:	fef40523          	sb	a5,-22(s0)
	for(i=0;i<16;i++)
    a0002c9e:	fec42783          	lw	a5,-20(s0)
    a0002ca2:	2785                	addiw	a5,a5,1
    a0002ca4:	fef42623          	sw	a5,-20(s0)
    a0002ca8:	fec42783          	lw	a5,-20(s0)
    a0002cac:	0007871b          	sext.w	a4,a5
    a0002cb0:	47bd                	li	a5,15
    a0002cb2:	f8e7d0e3          	ble	a4,a5,a0002c32 <DdrInit+0xcd8>
		}
	}
	DqG2OutDly(min+2);
    a0002cb6:	feb44783          	lbu	a5,-21(s0)
    a0002cba:	2781                	sext.w	a5,a5
    a0002cbc:	2789                	addiw	a5,a5,2
    a0002cbe:	2781                	sext.w	a5,a5
    a0002cc0:	2781                	sext.w	a5,a5
    a0002cc2:	853e                	mv	a0,a5
    a0002cc4:	f1efe0ef          	jal	ra,a00013e2 <DqG2OutDly>
	_printf("DDR_DQG2_OUT : %d\n",min+2);
    a0002cc8:	feb44783          	lbu	a5,-21(s0)
    a0002ccc:	2781                	sext.w	a5,a5
    a0002cce:	2789                	addiw	a5,a5,2
    a0002cd0:	2781                	sext.w	a5,a5
    a0002cd2:	85be                	mv	a1,a5
    a0002cd4:	00002517          	auipc	a0,0x2
    a0002cd8:	29c50513          	addi	a0,a0,668 # a0004f70 <__text_e+0x2f0>
    a0002cdc:	43e010ef          	jal	ra,a000411a <_printf>



	min=15, max=0;
    a0002ce0:	47bd                	li	a5,15
    a0002ce2:	fef405a3          	sb	a5,-21(s0)
    a0002ce6:	fe040523          	sb	zero,-22(s0)
	for(i=0;i<16;i++)
    a0002cea:	fe042623          	sw	zero,-20(s0)
    a0002cee:	a8a5                	j	a0002d66 <DdrInit+0xe0c>
	{
		DqG3OutDly(i);
    a0002cf0:	fec42783          	lw	a5,-20(s0)
    a0002cf4:	853e                	mv	a0,a5
    a0002cf6:	825fe0ef          	jal	ra,a000151a <DqG3OutDly>
		char temp = ddr_rw_test();
    a0002cfa:	e3ffe0ef          	jal	ra,a0001b38 <ddr_rw_test>
    a0002cfe:	87aa                	mv	a5,a0
    a0002d00:	fcf40e23          	sb	a5,-36(s0)
		if(temp!=0)  _printf("_");
    a0002d04:	fdc44783          	lbu	a5,-36(s0)
    a0002d08:	0ff7f793          	andi	a5,a5,255
    a0002d0c:	cb81                	beqz	a5,a0002d1c <DdrInit+0xdc2>
    a0002d0e:	00002517          	auipc	a0,0x2
    a0002d12:	09250513          	addi	a0,a0,146 # a0004da0 <__text_e+0x120>
    a0002d16:	404010ef          	jal	ra,a000411a <_printf>
    a0002d1a:	a089                	j	a0002d5c <DdrInit+0xe02>
		else
		{
			_printf("*");
    a0002d1c:	00002517          	auipc	a0,0x2
    a0002d20:	08c50513          	addi	a0,a0,140 # a0004da8 <__text_e+0x128>
    a0002d24:	3f6010ef          	jal	ra,a000411a <_printf>
			if(min>i) min = i;
    a0002d28:	feb44783          	lbu	a5,-21(s0)
    a0002d2c:	0007871b          	sext.w	a4,a5
    a0002d30:	fec42783          	lw	a5,-20(s0)
    a0002d34:	2781                	sext.w	a5,a5
    a0002d36:	00e7d663          	ble	a4,a5,a0002d42 <DdrInit+0xde8>
    a0002d3a:	fec42783          	lw	a5,-20(s0)
    a0002d3e:	fef405a3          	sb	a5,-21(s0)
			if(max<i) max = i;
    a0002d42:	fea44783          	lbu	a5,-22(s0)
    a0002d46:	0007871b          	sext.w	a4,a5
    a0002d4a:	fec42783          	lw	a5,-20(s0)
    a0002d4e:	2781                	sext.w	a5,a5
    a0002d50:	00f75663          	ble	a5,a4,a0002d5c <DdrInit+0xe02>
    a0002d54:	fec42783          	lw	a5,-20(s0)
    a0002d58:	fef40523          	sb	a5,-22(s0)
	for(i=0;i<16;i++)
    a0002d5c:	fec42783          	lw	a5,-20(s0)
    a0002d60:	2785                	addiw	a5,a5,1
    a0002d62:	fef42623          	sw	a5,-20(s0)
    a0002d66:	fec42783          	lw	a5,-20(s0)
    a0002d6a:	0007871b          	sext.w	a4,a5
    a0002d6e:	47bd                	li	a5,15
    a0002d70:	f8e7d0e3          	ble	a4,a5,a0002cf0 <DdrInit+0xd96>
		}
	}
	DqG3OutDly(min+2);
    a0002d74:	feb44783          	lbu	a5,-21(s0)
    a0002d78:	2781                	sext.w	a5,a5
    a0002d7a:	2789                	addiw	a5,a5,2
    a0002d7c:	2781                	sext.w	a5,a5
    a0002d7e:	2781                	sext.w	a5,a5
    a0002d80:	853e                	mv	a0,a5
    a0002d82:	f98fe0ef          	jal	ra,a000151a <DqG3OutDly>
	_printf("DDR_DQG3_OUT : %d\n",min+2);
    a0002d86:	feb44783          	lbu	a5,-21(s0)
    a0002d8a:	2781                	sext.w	a5,a5
    a0002d8c:	2789                	addiw	a5,a5,2
    a0002d8e:	2781                	sext.w	a5,a5
    a0002d90:	85be                	mv	a1,a5
    a0002d92:	00002517          	auipc	a0,0x2
    a0002d96:	1f650513          	addi	a0,a0,502 # a0004f88 <__text_e+0x308>
    a0002d9a:	380010ef          	jal	ra,a000411a <_printf>

//	DdrMapTest();
}
    a0002d9e:	0001                	nop
    a0002da0:	70e2                	ld	ra,56(sp)
    a0002da2:	7442                	ld	s0,48(sp)
    a0002da4:	6121                	addi	sp,sp,64
    a0002da6:	8082                	ret

00000000a0002da8 <dma_copy>:
#include "reg.h"
#include "dma.h"
#include "rv_utils.h"

void dma_copy(UINT dst, UINT src, UINT len)
{
    a0002da8:	1101                	addi	sp,sp,-32
    a0002daa:	ec06                	sd	ra,24(sp)
    a0002dac:	e822                	sd	s0,16(sp)
    a0002dae:	1000                	addi	s0,sp,32
    a0002db0:	87aa                	mv	a5,a0
    a0002db2:	86ae                	mv	a3,a1
    a0002db4:	8732                	mv	a4,a2
    a0002db6:	fef42623          	sw	a5,-20(s0)
    a0002dba:	87b6                	mv	a5,a3
    a0002dbc:	fef42423          	sw	a5,-24(s0)
    a0002dc0:	87ba                	mv	a5,a4
    a0002dc2:	fef42223          	sw	a5,-28(s0)
	hwflush_dcache_range(src,src+len);
    a0002dc6:	fe842703          	lw	a4,-24(s0)
    a0002dca:	fe442783          	lw	a5,-28(s0)
    a0002dce:	9fb9                	addw	a5,a5,a4
    a0002dd0:	0007871b          	sext.w	a4,a5
    a0002dd4:	fe842783          	lw	a5,-24(s0)
    a0002dd8:	85ba                	mv	a1,a4
    a0002dda:	853e                	mv	a0,a5
    a0002ddc:	3e2010ef          	jal	ra,a00041be <hwflush_dcache_range>
	hwflush_dcache_range(dst,dst+len);
    a0002de0:	fec42703          	lw	a4,-20(s0)
    a0002de4:	fe442783          	lw	a5,-28(s0)
    a0002de8:	9fb9                	addw	a5,a5,a4
    a0002dea:	0007871b          	sext.w	a4,a5
    a0002dee:	fec42783          	lw	a5,-20(s0)
    a0002df2:	85ba                	mv	a1,a4
    a0002df4:	853e                	mv	a0,a5
    a0002df6:	3c8010ef          	jal	ra,a00041be <hwflush_dcache_range>
	BDMA0_JOB_PTR++;
    a0002dfa:	451007b7          	lui	a5,0x45100
    a0002dfe:	4398                	lw	a4,0(a5)
    a0002e00:	00e7571b          	srliw	a4,a4,0xe
    a0002e04:	03f77713          	andi	a4,a4,63
    a0002e08:	0ff77713          	andi	a4,a4,255
    a0002e0c:	2705                	addiw	a4,a4,1
    a0002e0e:	03f77713          	andi	a4,a4,63
    a0002e12:	0ff77713          	andi	a4,a4,255
    a0002e16:	03f77713          	andi	a4,a4,63
    a0002e1a:	00e7171b          	slliw	a4,a4,0xe
    a0002e1e:	4390                	lw	a2,0(a5)
    a0002e20:	fff046b7          	lui	a3,0xfff04
    a0002e24:	16fd                	addi	a3,a3,-1
    a0002e26:	8ef1                	and	a3,a3,a2
    a0002e28:	8f55                	or	a4,a4,a3
    a0002e2a:	c398                	sw	a4,0(a5)
	BDMA0_MODE = 0;
    a0002e2c:	451007b7          	lui	a5,0x45100
    a0002e30:	4398                	lw	a4,0(a5)
    a0002e32:	9b65                	andi	a4,a4,-7
    a0002e34:	c398                	sw	a4,0(a5)
	BDMA0_SRC = src;
    a0002e36:	451007b7          	lui	a5,0x45100
    a0002e3a:	07a1                	addi	a5,a5,8
    a0002e3c:	fe842703          	lw	a4,-24(s0)
    a0002e40:	c398                	sw	a4,0(a5)
	BDMA0_DST = dst;
    a0002e42:	451007b7          	lui	a5,0x45100
    a0002e46:	07c1                	addi	a5,a5,16
    a0002e48:	fec42703          	lw	a4,-20(s0)
    a0002e4c:	c398                	sw	a4,0(a5)
	BDMA0_LEN = len;
    a0002e4e:	451007b7          	lui	a5,0x45100
    a0002e52:	07e1                	addi	a5,a5,24
    a0002e54:	fe442703          	lw	a4,-28(s0)
    a0002e58:	c398                	sw	a4,0(a5)
	BDMA0_GO = 1;
    a0002e5a:	451007b7          	lui	a5,0x45100
    a0002e5e:	4398                	lw	a4,0(a5)
    a0002e60:	00176713          	ori	a4,a4,1
    a0002e64:	c398                	sw	a4,0(a5)
	while(BDMA0_DONE_PTR!=BDMA0_JOB_PTR){
    a0002e66:	0001                	nop
    a0002e68:	451007b7          	lui	a5,0x45100
    a0002e6c:	439c                	lw	a5,0(a5)
    a0002e6e:	0167d79b          	srliw	a5,a5,0x16
    a0002e72:	03f7f793          	andi	a5,a5,63
    a0002e76:	0ff7f713          	andi	a4,a5,255
    a0002e7a:	451007b7          	lui	a5,0x45100
    a0002e7e:	439c                	lw	a5,0(a5)
    a0002e80:	00e7d79b          	srliw	a5,a5,0xe
    a0002e84:	03f7f793          	andi	a5,a5,63
    a0002e88:	0ff7f793          	andi	a5,a5,255
    a0002e8c:	fcf71ee3          	bne	a4,a5,a0002e68 <dma_copy+0xc0>
		//_printf("!");
	}

}
    a0002e90:	0001                	nop
    a0002e92:	60e2                	ld	ra,24(sp)
    a0002e94:	6442                	ld	s0,16(sp)
    a0002e96:	6105                	addi	sp,sp,32
    a0002e98:	8082                	ret

00000000a0002e9a <dma_set>:

void dma_set(UINT dst, UINT len, BYTE value)
{
    a0002e9a:	1101                	addi	sp,sp,-32
    a0002e9c:	ec22                	sd	s0,24(sp)
    a0002e9e:	1000                	addi	s0,sp,32
    a0002ea0:	87aa                	mv	a5,a0
    a0002ea2:	86ae                	mv	a3,a1
    a0002ea4:	8732                	mv	a4,a2
    a0002ea6:	fef42623          	sw	a5,-20(s0)
    a0002eaa:	87b6                	mv	a5,a3
    a0002eac:	fef42423          	sw	a5,-24(s0)
    a0002eb0:	87ba                	mv	a5,a4
    a0002eb2:	fef403a3          	sb	a5,-25(s0)
	BDMA0_JOB_PTR++;
    a0002eb6:	451007b7          	lui	a5,0x45100
    a0002eba:	4398                	lw	a4,0(a5)
    a0002ebc:	00e7571b          	srliw	a4,a4,0xe
    a0002ec0:	03f77713          	andi	a4,a4,63
    a0002ec4:	0ff77713          	andi	a4,a4,255
    a0002ec8:	2705                	addiw	a4,a4,1
    a0002eca:	03f77713          	andi	a4,a4,63
    a0002ece:	0ff77713          	andi	a4,a4,255
    a0002ed2:	03f77713          	andi	a4,a4,63
    a0002ed6:	00e7171b          	slliw	a4,a4,0xe
    a0002eda:	4390                	lw	a2,0(a5)
    a0002edc:	fff046b7          	lui	a3,0xfff04
    a0002ee0:	16fd                	addi	a3,a3,-1
    a0002ee2:	8ef1                	and	a3,a3,a2
    a0002ee4:	8f55                	or	a4,a4,a3
    a0002ee6:	c398                	sw	a4,0(a5)
	BDMA0_VALUE = value;
    a0002ee8:	451007b7          	lui	a5,0x45100
    a0002eec:	fe744703          	lbu	a4,-25(s0)
    a0002ef0:	0037171b          	slliw	a4,a4,0x3
    a0002ef4:	4394                	lw	a3,0(a5)
    a0002ef6:	8076f693          	andi	a3,a3,-2041
    a0002efa:	8f55                	or	a4,a4,a3
    a0002efc:	c398                	sw	a4,0(a5)
	BDMA0_MODE = 1;
    a0002efe:	451007b7          	lui	a5,0x45100
    a0002f02:	4398                	lw	a4,0(a5)
    a0002f04:	9b65                	andi	a4,a4,-7
    a0002f06:	00276713          	ori	a4,a4,2
    a0002f0a:	c398                	sw	a4,0(a5)
	BDMA0_DST = dst;
    a0002f0c:	451007b7          	lui	a5,0x45100
    a0002f10:	07c1                	addi	a5,a5,16
    a0002f12:	fec42703          	lw	a4,-20(s0)
    a0002f16:	c398                	sw	a4,0(a5)
	BDMA0_LEN = len;
    a0002f18:	451007b7          	lui	a5,0x45100
    a0002f1c:	07e1                	addi	a5,a5,24
    a0002f1e:	fe842703          	lw	a4,-24(s0)
    a0002f22:	c398                	sw	a4,0(a5)
	BDMA0_GO = 1;
    a0002f24:	451007b7          	lui	a5,0x45100
    a0002f28:	4398                	lw	a4,0(a5)
    a0002f2a:	00176713          	ori	a4,a4,1
    a0002f2e:	c398                	sw	a4,0(a5)
	while(BDMA0_DONE_PTR!=BDMA0_JOB_PTR);
    a0002f30:	0001                	nop
    a0002f32:	451007b7          	lui	a5,0x45100
    a0002f36:	439c                	lw	a5,0(a5)
    a0002f38:	0167d79b          	srliw	a5,a5,0x16
    a0002f3c:	03f7f793          	andi	a5,a5,63
    a0002f40:	0ff7f713          	andi	a4,a5,255
    a0002f44:	451007b7          	lui	a5,0x45100
    a0002f48:	439c                	lw	a5,0(a5)
    a0002f4a:	00e7d79b          	srliw	a5,a5,0xe
    a0002f4e:	03f7f793          	andi	a5,a5,63
    a0002f52:	0ff7f793          	andi	a5,a5,255
    a0002f56:	fcf71ee3          	bne	a4,a5,a0002f32 <dma_set+0x98>
}
    a0002f5a:	0001                	nop
    a0002f5c:	6462                	ld	s0,24(sp)
    a0002f5e:	6105                	addi	sp,sp,32
    a0002f60:	8082                	ret

00000000a0002f62 <cdma_copy>:
void cdma_copy(UINT dst, UINT src, UINT len)
{
    a0002f62:	1101                	addi	sp,sp,-32
    a0002f64:	ec06                	sd	ra,24(sp)
    a0002f66:	e822                	sd	s0,16(sp)
    a0002f68:	1000                	addi	s0,sp,32
    a0002f6a:	87aa                	mv	a5,a0
    a0002f6c:	86ae                	mv	a3,a1
    a0002f6e:	8732                	mv	a4,a2
    a0002f70:	fef42623          	sw	a5,-20(s0)
    a0002f74:	87b6                	mv	a5,a3
    a0002f76:	fef42423          	sw	a5,-24(s0)
    a0002f7a:	87ba                	mv	a5,a4
    a0002f7c:	fef42223          	sw	a5,-28(s0)
	hwflush_dcache_range(src,src+len);
    a0002f80:	fe842703          	lw	a4,-24(s0)
    a0002f84:	fe442783          	lw	a5,-28(s0)
    a0002f88:	9fb9                	addw	a5,a5,a4
    a0002f8a:	0007871b          	sext.w	a4,a5
    a0002f8e:	fe842783          	lw	a5,-24(s0)
    a0002f92:	85ba                	mv	a1,a4
    a0002f94:	853e                	mv	a0,a5
    a0002f96:	228010ef          	jal	ra,a00041be <hwflush_dcache_range>
	CDMA0_JOB_PTR++;
    a0002f9a:	452007b7          	lui	a5,0x45200
    a0002f9e:	4398                	lw	a4,0(a5)
    a0002fa0:	00e7571b          	srliw	a4,a4,0xe
    a0002fa4:	03f77713          	andi	a4,a4,63
    a0002fa8:	0ff77713          	andi	a4,a4,255
    a0002fac:	2705                	addiw	a4,a4,1
    a0002fae:	03f77713          	andi	a4,a4,63
    a0002fb2:	0ff77713          	andi	a4,a4,255
    a0002fb6:	03f77713          	andi	a4,a4,63
    a0002fba:	00e7171b          	slliw	a4,a4,0xe
    a0002fbe:	4390                	lw	a2,0(a5)
    a0002fc0:	fff046b7          	lui	a3,0xfff04
    a0002fc4:	16fd                	addi	a3,a3,-1
    a0002fc6:	8ef1                	and	a3,a3,a2
    a0002fc8:	8f55                	or	a4,a4,a3
    a0002fca:	c398                	sw	a4,0(a5)
	CDMA0_MODE = 0;
    a0002fcc:	452007b7          	lui	a5,0x45200
    a0002fd0:	4398                	lw	a4,0(a5)
    a0002fd2:	9b65                	andi	a4,a4,-7
    a0002fd4:	c398                	sw	a4,0(a5)
	CDMA0_SRC = src;
    a0002fd6:	452007b7          	lui	a5,0x45200
    a0002fda:	07a1                	addi	a5,a5,8
    a0002fdc:	fe842703          	lw	a4,-24(s0)
    a0002fe0:	c398                	sw	a4,0(a5)
	CDMA0_DST = dst;
    a0002fe2:	452007b7          	lui	a5,0x45200
    a0002fe6:	07c1                	addi	a5,a5,16
    a0002fe8:	fec42703          	lw	a4,-20(s0)
    a0002fec:	c398                	sw	a4,0(a5)
	CDMA0_LEN = len;
    a0002fee:	452007b7          	lui	a5,0x45200
    a0002ff2:	07e1                	addi	a5,a5,24
    a0002ff4:	fe442703          	lw	a4,-28(s0)
    a0002ff8:	c398                	sw	a4,0(a5)
	CDMA0_GO = 1;
    a0002ffa:	452007b7          	lui	a5,0x45200
    a0002ffe:	4398                	lw	a4,0(a5)
    a0003000:	00176713          	ori	a4,a4,1
    a0003004:	c398                	sw	a4,0(a5)
	while(CDMA0_DONE_PTR!=CDMA0_JOB_PTR);
    a0003006:	0001                	nop
    a0003008:	452007b7          	lui	a5,0x45200
    a000300c:	439c                	lw	a5,0(a5)
    a000300e:	0167d79b          	srliw	a5,a5,0x16
    a0003012:	03f7f793          	andi	a5,a5,63
    a0003016:	0ff7f713          	andi	a4,a5,255
    a000301a:	452007b7          	lui	a5,0x45200
    a000301e:	439c                	lw	a5,0(a5)
    a0003020:	00e7d79b          	srliw	a5,a5,0xe
    a0003024:	03f7f793          	andi	a5,a5,63
    a0003028:	0ff7f793          	andi	a5,a5,255
    a000302c:	fcf71ee3          	bne	a4,a5,a0003008 <cdma_copy+0xa6>
}
    a0003030:	0001                	nop
    a0003032:	60e2                	ld	ra,24(sp)
    a0003034:	6442                	ld	s0,16(sp)
    a0003036:	6105                	addi	sp,sp,32
    a0003038:	8082                	ret

00000000a000303a <cdma_set>:

void cdma_set(UINT dst, UINT len, BYTE value)
{
    a000303a:	1101                	addi	sp,sp,-32
    a000303c:	ec22                	sd	s0,24(sp)
    a000303e:	1000                	addi	s0,sp,32
    a0003040:	87aa                	mv	a5,a0
    a0003042:	86ae                	mv	a3,a1
    a0003044:	8732                	mv	a4,a2
    a0003046:	fef42623          	sw	a5,-20(s0)
    a000304a:	87b6                	mv	a5,a3
    a000304c:	fef42423          	sw	a5,-24(s0)
    a0003050:	87ba                	mv	a5,a4
    a0003052:	fef403a3          	sb	a5,-25(s0)
	CDMA0_JOB_PTR++;
    a0003056:	452007b7          	lui	a5,0x45200
    a000305a:	4398                	lw	a4,0(a5)
    a000305c:	00e7571b          	srliw	a4,a4,0xe
    a0003060:	03f77713          	andi	a4,a4,63
    a0003064:	0ff77713          	andi	a4,a4,255
    a0003068:	2705                	addiw	a4,a4,1
    a000306a:	03f77713          	andi	a4,a4,63
    a000306e:	0ff77713          	andi	a4,a4,255
    a0003072:	03f77713          	andi	a4,a4,63
    a0003076:	00e7171b          	slliw	a4,a4,0xe
    a000307a:	4390                	lw	a2,0(a5)
    a000307c:	fff046b7          	lui	a3,0xfff04
    a0003080:	16fd                	addi	a3,a3,-1
    a0003082:	8ef1                	and	a3,a3,a2
    a0003084:	8f55                	or	a4,a4,a3
    a0003086:	c398                	sw	a4,0(a5)
	CDMA0_VALUE = value;
    a0003088:	452007b7          	lui	a5,0x45200
    a000308c:	fe744703          	lbu	a4,-25(s0)
    a0003090:	0037171b          	slliw	a4,a4,0x3
    a0003094:	4394                	lw	a3,0(a5)
    a0003096:	8076f693          	andi	a3,a3,-2041
    a000309a:	8f55                	or	a4,a4,a3
    a000309c:	c398                	sw	a4,0(a5)
	CDMA0_MODE = 1;
    a000309e:	452007b7          	lui	a5,0x45200
    a00030a2:	4398                	lw	a4,0(a5)
    a00030a4:	9b65                	andi	a4,a4,-7
    a00030a6:	00276713          	ori	a4,a4,2
    a00030aa:	c398                	sw	a4,0(a5)
	CDMA0_DST = dst;
    a00030ac:	452007b7          	lui	a5,0x45200
    a00030b0:	07c1                	addi	a5,a5,16
    a00030b2:	fec42703          	lw	a4,-20(s0)
    a00030b6:	c398                	sw	a4,0(a5)
	CDMA0_LEN = len;
    a00030b8:	452007b7          	lui	a5,0x45200
    a00030bc:	07e1                	addi	a5,a5,24
    a00030be:	fe842703          	lw	a4,-24(s0)
    a00030c2:	c398                	sw	a4,0(a5)
	CDMA0_GO = 1;
    a00030c4:	452007b7          	lui	a5,0x45200
    a00030c8:	4398                	lw	a4,0(a5)
    a00030ca:	00176713          	ori	a4,a4,1
    a00030ce:	c398                	sw	a4,0(a5)
	while(CDMA0_DONE_PTR!=CDMA0_JOB_PTR);
    a00030d0:	0001                	nop
    a00030d2:	452007b7          	lui	a5,0x45200
    a00030d6:	439c                	lw	a5,0(a5)
    a00030d8:	0167d79b          	srliw	a5,a5,0x16
    a00030dc:	03f7f793          	andi	a5,a5,63
    a00030e0:	0ff7f713          	andi	a4,a5,255
    a00030e4:	452007b7          	lui	a5,0x45200
    a00030e8:	439c                	lw	a5,0(a5)
    a00030ea:	00e7d79b          	srliw	a5,a5,0xe
    a00030ee:	03f7f793          	andi	a5,a5,63
    a00030f2:	0ff7f793          	andi	a5,a5,255
    a00030f6:	fcf71ee3          	bne	a4,a5,a00030d2 <cdma_set+0x98>
}
    a00030fa:	0001                	nop
    a00030fc:	6462                	ld	s0,24(sp)
    a00030fe:	6105                	addi	sp,sp,32
    a0003100:	8082                	ret

00000000a0003102 <wdt_init>:
#include "en675.h"
#include "reg.h"


void wdt_init(UINT milsec)
{
    a0003102:	1101                	addi	sp,sp,-32
    a0003104:	ec22                	sd	s0,24(sp)
    a0003106:	1000                	addi	s0,sp,32
    a0003108:	87aa                	mv	a5,a0
    a000310a:	fef42623          	sw	a5,-20(s0)
	SYS_WDT_LMT = (milsec*OSC_FREQ/1000);
    a000310e:	fec42703          	lw	a4,-20(s0)
    a0003112:	017d87b7          	lui	a5,0x17d8
    a0003116:	8407879b          	addiw	a5,a5,-1984
    a000311a:	02f707bb          	mulw	a5,a4,a5
    a000311e:	0007871b          	sext.w	a4,a5
    a0003122:	450007b7          	lui	a5,0x45000
    a0003126:	07c1                	addi	a5,a5,16
    a0003128:	86ba                	mv	a3,a4
    a000312a:	3e800713          	li	a4,1000
    a000312e:	02e6d73b          	divuw	a4,a3,a4
    a0003132:	2701                	sext.w	a4,a4
    a0003134:	c398                	sw	a4,0(a5)
	SYS_WDT_EN = 1;
    a0003136:	450007b7          	lui	a5,0x45000
    a000313a:	07e1                	addi	a5,a5,24
    a000313c:	4398                	lw	a4,0(a5)
    a000313e:	00276713          	ori	a4,a4,2
    a0003142:	c398                	sw	a4,0(a5)
}
    a0003144:	0001                	nop
    a0003146:	6462                	ld	s0,24(sp)
    a0003148:	6105                	addi	sp,sp,32
    a000314a:	8082                	ret

00000000a000314c <wdt_continue>:

void wdt_continue()
{
    a000314c:	1141                	addi	sp,sp,-16
    a000314e:	e422                	sd	s0,8(sp)
    a0003150:	0800                	addi	s0,sp,16
	SYS_WDT_CLR = 1;
    a0003152:	450007b7          	lui	a5,0x45000
    a0003156:	07e1                	addi	a5,a5,24
    a0003158:	4398                	lw	a4,0(a5)
    a000315a:	00176713          	ori	a4,a4,1
    a000315e:	c398                	sw	a4,0(a5)

	//	(SYS_WDT_LMT - SYS_WDT_CNT)*1000/(OSC_FREQ) = remain time (ms)
}
    a0003160:	0001                	nop
    a0003162:	6422                	ld	s0,8(sp)
    a0003164:	0141                	addi	sp,sp,16
    a0003166:	8082                	ret

00000000a0003168 <aes_init>:
#include "en675.h"
#include "reg.h"
#include "aes.h"

void aes_init()
{
    a0003168:	1141                	addi	sp,sp,-16
    a000316a:	e422                	sd	s0,8(sp)
    a000316c:	0800                	addi	s0,sp,16
	AES_KEY_255_224 =0x12345678;
    a000316e:	44d007b7          	lui	a5,0x44d00
    a0003172:	02078793          	addi	a5,a5,32 # 44d00020 <_ftext+0x44d00020>
    a0003176:	12345737          	lui	a4,0x12345
    a000317a:	6787071b          	addiw	a4,a4,1656
    a000317e:	c398                	sw	a4,0(a5)
	AES_KEY_223_192 =0x12345678;
    a0003180:	44d007b7          	lui	a5,0x44d00
    a0003184:	02878793          	addi	a5,a5,40 # 44d00028 <_ftext+0x44d00028>
    a0003188:	12345737          	lui	a4,0x12345
    a000318c:	6787071b          	addiw	a4,a4,1656
    a0003190:	c398                	sw	a4,0(a5)
	AES_KEY_191_160 =0x12345678;
    a0003192:	44d007b7          	lui	a5,0x44d00
    a0003196:	03078793          	addi	a5,a5,48 # 44d00030 <_ftext+0x44d00030>
    a000319a:	12345737          	lui	a4,0x12345
    a000319e:	6787071b          	addiw	a4,a4,1656
    a00031a2:	c398                	sw	a4,0(a5)
	AES_KEY_159_128 =0x12345678;
    a00031a4:	44d007b7          	lui	a5,0x44d00
    a00031a8:	03878793          	addi	a5,a5,56 # 44d00038 <_ftext+0x44d00038>
    a00031ac:	12345737          	lui	a4,0x12345
    a00031b0:	6787071b          	addiw	a4,a4,1656
    a00031b4:	c398                	sw	a4,0(a5)
	AES_KEY_127_96  =0x12345678;
    a00031b6:	44d007b7          	lui	a5,0x44d00
    a00031ba:	04078793          	addi	a5,a5,64 # 44d00040 <_ftext+0x44d00040>
    a00031be:	12345737          	lui	a4,0x12345
    a00031c2:	6787071b          	addiw	a4,a4,1656
    a00031c6:	c398                	sw	a4,0(a5)
	AES_KEY_95_64   =0x12345678;
    a00031c8:	44d007b7          	lui	a5,0x44d00
    a00031cc:	04878793          	addi	a5,a5,72 # 44d00048 <_ftext+0x44d00048>
    a00031d0:	12345737          	lui	a4,0x12345
